; Listing generated by Microsoft (R) Optimizing Compiler Version 19.00.24215.1 

	TITLE	d:\nevoie personala\engine hack\ankfest\ankfest\ankfest.cpp
	.686P
	.XMM
	include listing.inc
	.model	flat

INCLUDELIB OLDNAMES

PUBLIC	??_C@_00CNPNBAHC@?$AA@				; `string'
PUBLIC	??_C@_0BB@KMPIJMAG@seDebugPrivilege?$AA@	; `string'
PUBLIC	??_C@_0N@FHFKIPAC@?4?2Config?4cfg?$AA@		; `string'
PUBLIC	??_C@_0L@NIEILAKM@aimbot?4key?$AA@		; `string'
PUBLIC	??_C@_07PBMJFFMH@Horcrux?$AA@			; `string'
PUBLIC	??_C@_0P@PILJLKNI@aimbot?4end?4key?$AA@		; `string'
PUBLIC	??_C@_0P@LHGBDINM@triggerbot?4key?$AA@		; `string'
PUBLIC	??_C@_0P@DDHPAHFC@cfg?4reload?4key?$AA@		; `string'
PUBLIC	??_C@_0BF@JHHDDMAH@weapon?4glock?4enabled?$AA@	; `string'
PUBLIC	??_C@_0BB@BOBGMIJB@weapon?4glock?4fov?$AA@	; `string'
PUBLIC	??_C@_0BE@IDGBBLCJ@weapon?4glock?4smooth?$AA@	; `string'
PUBLIC	??_C@_0BC@HICJHOPA@weapon?4glock?4bone?$AA@	; `string'
PUBLIC	??_C@_0CA@IDLCPCOB@weapon?4triggerbot?4glock?4enabled?$AA@ ; `string'
PUBLIC	??_C@_0CA@CGIEGGHF@weapon?4triggerbot?4glock?4sleep?41?$AA@ ; `string'
PUBLIC	??_C@_0CA@NKJDFLG@weapon?4triggerbot?4glock?4sleep?42?$AA@ ; `string'
PUBLIC	??_C@_0BF@CELMLB@weapon?4elite?4enabled?$AA@	; `string'
PUBLIC	??_C@_0BB@EEPPNCBL@weapon?4elite?4fov?$AA@	; `string'
PUBLIC	??_C@_0BE@GDICFCC@weapon?4elite?4smooth?$AA@	; `string'
PUBLIC	??_C@_0BC@HFBOPNNE@weapon?4elite?4bone?$AA@	; `string'
PUBLIC	??_C@_0CA@BEOFHCFH@weapon?4triggerbot?4elite?4enabled?$AA@ ; `string'
PUBLIC	??_C@_0CA@LBNDOGMD@weapon?4triggerbot?4elite?4sleep?41?$AA@ ; `string'
PUBLIC	??_C@_0CA@JKPOLFAA@weapon?4triggerbot?4elite?4sleep?42?$AA@ ; `string'
PUBLIC	??_C@_0BE@JNCAMCMA@weapon?4p250?4enabled?$AA@	; `string'
PUBLIC	??_C@_0BA@HBIMBKAL@weapon?4p250?4fov?$AA@	; `string'
PUBLIC	??_C@_0BD@NADBPLKH@weapon?4p250?4smooth?$AA@	; `string'
PUBLIC	??_C@_0BB@GIJMJOHI@weapon?4p250?4bone?$AA@	; `string'
PUBLIC	??_C@_0BP@FNLCGLNM@weapon?4triggerbot?4p250?4enabled?$AA@ ; `string'
PUBLIC	??_C@_0BP@PIIEPPEI@weapon?4triggerbot?4p250?4sleep?41?$AA@ ; `string'
PUBLIC	??_C@_0BP@NDKJKMIL@weapon?4triggerbot?4p250?4sleep?42?$AA@ ; `string'
PUBLIC	??_C@_0BE@HJGECHHI@weapon?4tec9?4enabled?$AA@	; `string'
PUBLIC	??_C@_0BA@BEIJDMJN@weapon?4tec9?4fov?$AA@	; `string'
PUBLIC	??_C@_0BD@JKBLEICL@weapon?4tec9?4smooth?$AA@	; `string'
PUBLIC	??_C@_0BB@HBJFKNCP@weapon?4tec9?4bone?$AA@	; `string'
PUBLIC	??_C@_0BP@LJPGIOGE@weapon?4triggerbot?4tec9?4enabled?$AA@ ; `string'
PUBLIC	??_C@_0BP@BMMABKPA@weapon?4triggerbot?4tec9?4sleep?41?$AA@ ; `string'
PUBLIC	??_C@_0BP@DHONEJDD@weapon?4triggerbot?4tec9?4sleep?42?$AA@ ; `string'
PUBLIC	??_C@_0BG@CEEDBLAJ@weapon?4deagle?4enabled?$AA@	; `string'
PUBLIC	??_C@_0BC@HBEIPDBF@weapon?4deagle?4fov?$AA@	; `string'
PUBLIC	??_C@_0BF@NFDMDLNB@weapon?4deagle?4smooth?$AA@	; `string'
PUBLIC	??_C@_0BD@JCJDGHPC@weapon?4deagle?4bone?$AA@	; `string'
PUBLIC	??_C@_0CB@GNDOJNIK@weapon?4triggerbot?4deagle?4enabled@ ; `string'
PUBLIC	??_C@_0CB@MIAIAJBO@weapon?4triggerbot?4deagle?4sleep?41@ ; `string'
PUBLIC	??_C@_0CB@ODCFFKNN@weapon?4triggerbot?4deagle?4sleep?42@ ; `string'
PUBLIC	??_C@_0BH@GGFEAIHO@weapon?4hkp2000?4enabled?$AA@ ; `string'
PUBLIC	??_C@_0BD@PPNIHNIP@weapon?4hkp2000?4fov?$AA@	; `string'
PUBLIC	??_C@_0BG@HALHCAPI@weapon?4hkp2000?4smooth?$AA@	; `string'
PUBLIC	??_C@_0BE@ICMHINCG@weapon?4hkp2000?4bone?$AA@	; `string'
PUBLIC	??_C@_0CC@BCKMKHGC@weapon?4triggerbot?4hkp2000?4enable@ ; `string'
PUBLIC	??_C@_0CC@LHJKDDPG@weapon?4triggerbot?4hkp2000?4sleep?4@ ; `string'
PUBLIC	??_C@_0CC@JMLHGADF@weapon?4triggerbot?4hkp2000?4sleep?4@ ; `string'
PUBLIC	??_C@_0BD@BNINBBEF@weapon?4usp?4enabled?$AA@	; `string'
PUBLIC	??_C@_0P@GEFBHGJN@weapon?4usp?4fov?$AA@		; `string'
PUBLIC	??_C@_0BC@BIIFLFDC@weapon?4usp?4smooth?$AA@	; `string'
PUBLIC	??_C@_0BA@HBOFHFGF@weapon?4usp?4bone?$AA@	; `string'
PUBLIC	??_C@_0BO@DFEIKADK@weapon?4triggerbot?4usp?4enabled?$AA@ ; `string'
PUBLIC	??_C@_0BO@JAHODEKO@weapon?4triggerbot?4usp?4sleep?41?$AA@ ; `string'
PUBLIC	??_C@_0BO@LLFDGHGN@weapon?4triggerbot?4usp?4sleep?42?$AA@ ; `string'
PUBLIC	??_C@_0BJ@NGCKLMFI@weapon?4fiveseven?4enabled?$AA@ ; `string'
PUBLIC	??_C@_0BF@IAFBFPEE@weapon?4fiveseven?4fov?$AA@	; `string'
PUBLIC	??_C@_0BI@NOJLCEIC@weapon?4fiveseven?4smooth?$AA@ ; `string'
PUBLIC	??_C@_0BG@IOAOBPDM@weapon?4fiveseven?4bone?$AA@	; `string'
PUBLIC	??_C@_0CE@HGDECLIE@weapon?4triggerbot?4fiveseven?4enab@ ; `string'
PUBLIC	??_C@_0CE@NDACLPBA@weapon?4triggerbot?4fiveseven?4slee@ ; `string'
PUBLIC	??_C@_0CE@PICPOMND@weapon?4triggerbot?4fiveseven?4slee@ ; `string'
PUBLIC	??_C@_0BE@BMMHLLFP@weapon?4cz75?4enabled?$AA@	; `string'
PUBLIC	??_C@_0BA@NJOLDNHN@weapon?4cz75?4fov?$AA@	; `string'
PUBLIC	??_C@_0BD@IJFOKJHD@weapon?4cz75?4smooth?$AA@	; `string'
PUBLIC	??_C@_0BB@NBFCCNFG@weapon?4cz75?4bone?$AA@	; `string'
PUBLIC	??_C@_0BP@NMFFBCED@weapon?4triggerbot?4cz75?4enabled?$AA@ ; `string'
PUBLIC	??_C@_0BP@HJGDIGNH@weapon?4triggerbot?4cz75?4sleep?41?$AA@ ; `string'
PUBLIC	??_C@_0BP@FCEONFBE@weapon?4triggerbot?4cz75?4sleep?42?$AA@ ; `string'
PUBLIC	??_C@_0BE@GIGJKBNA@weapon?4nova?4enabled?$AA@	; `string'
PUBLIC	??_C@_0BA@GJJMNBEJ@weapon?4nova?4fov?$AA@	; `string'
PUBLIC	??_C@_0BD@JGJGLMPA@weapon?4nova?4smooth?$AA@	; `string'
PUBLIC	??_C@_0BB@PAFGKOAP@weapon?4nova?4bone?$AA@	; `string'
PUBLIC	??_C@_0BP@KIPLAIMM@weapon?4triggerbot?4nova?4enabled?$AA@ ; `string'
PUBLIC	??_C@_0BP@NMNJMFI@weapon?4triggerbot?4nova?4sleep?41?$AA@ ; `string'
PUBLIC	??_C@_0BP@CGOAMPJL@weapon?4triggerbot?4nova?4sleep?42?$AA@ ; `string'
PUBLIC	??_C@_0BG@LCBIMKDD@weapon?4xm1014?4enabled?$AA@	; `string'
PUBLIC	??_C@_0BC@GOBCANGB@weapon?4xm1014?4fov?$AA@	; `string'
PUBLIC	??_C@_0BF@IHEFIPJL@weapon?4xm1014?4smooth?$AA@	; `string'
PUBLIC	??_C@_0BD@MFOEIICJ@weapon?4xm1014?4bone?$AA@	; `string'
PUBLIC	??_C@_0CB@PLGFEMLA@weapon?4triggerbot?4xm1014?4enabled@ ; `string'
PUBLIC	??_C@_0CB@FOFDNICE@weapon?4triggerbot?4xm1014?4sleep?41@ ; `string'
PUBLIC	??_C@_0CB@HFHOILOH@weapon?4triggerbot?4xm1014?4sleep?42@ ; `string'
PUBLIC	??_C@_0BI@ICGDALBG@weapon?4swadeoff?4enabled?$AA@ ; `string'
PUBLIC	??_C@_0BE@JEICLJJO@weapon?4swadeoff?4fov?$AA@	; `string'
PUBLIC	??_C@_0BH@EJHLEDHE@weapon?4swadeoff?4smooth?$AA@ ; `string'
PUBLIC	??_C@_0BF@OIBMPHBA@weapon?4swadeoff?4bone?$AA@	; `string'
PUBLIC	??_C@_0CD@JGBGKPPG@weapon?4triggerbot?4swadeoff?4enabl@ ; `string'
PUBLIC	??_C@_0CD@DDCADLGC@weapon?4triggerbot?4swadeoff?4sleep@ ; `string'
PUBLIC	??_C@_0CD@BIANGIKB@weapon?4triggerbot?4swadeoff?4sleep@ ; `string'
PUBLIC	??_C@_0BE@OHOAPDAE@weapon?4mag7?4enabled?$AA@	; `string'
PUBLIC	??_C@_0BA@FOOFIDCO@weapon?4mag7?4fov?$AA@	; `string'
PUBLIC	??_C@_0BD@HKFKJHCM@weapon?4mag7?4smooth?$AA@	; `string'
PUBLIC	??_C@_0BB@CDLHCDKG@weapon?4mag7?4bone?$AA@	; `string'
PUBLIC	??_C@_0BP@CHHCFKBI@weapon?4triggerbot?4mag7?4enabled?$AA@ ; `string'
PUBLIC	??_C@_0BP@ICEEMOIM@weapon?4triggerbot?4mag7?4sleep?41?$AA@ ; `string'
PUBLIC	??_C@_0BP@KJGJJNEP@weapon?4triggerbot?4mag7?4sleep?42?$AA@ ; `string'
PUBLIC	??_C@_0BF@GGEENCDJ@weapon?4mac10?4enabled?$AA@	; `string'
PUBLIC	??_C@_0BB@HNNHKKOK@weapon?4mac10?4fov?$AA@	; `string'
PUBLIC	??_C@_0BE@GAGNGHPI@weapon?4mac10?4smooth?$AA@	; `string'
PUBLIC	??_C@_0BC@LPJNBHCG@weapon?4mac10?4bone?$AA@	; `string'
PUBLIC	??_C@_0BB@NGMBGHAD@weapon?4mac10?4rcs?$AA@	; `string'
PUBLIC	??_C@_0CA@HCIFBMNP@weapon?4triggerbot?4mac10?4enabled?$AA@ ; `string'
PUBLIC	??_C@_0CA@NHLDIIEL@weapon?4triggerbot?4mac10?4sleep?41?$AA@ ; `string'
PUBLIC	??_C@_0CA@PMJONLII@weapon?4triggerbot?4mac10?4sleep?42?$AA@ ; `string'
PUBLIC	??_C@_0BD@PCBNPAJP@weapon?4mp7?4enabled?$AA@	; `string'
PUBLIC	??_C@_0P@OILKHMEK@weapon?4mp7?4fov?$AA@		; `string'
PUBLIC	??_C@_0BC@FNHEEFHB@weapon?4mp7?4smooth?$AA@	; `string'
PUBLIC	??_C@_0BA@GJNONJBI@weapon?4mp7?4bone?$AA@	; `string'
PUBLIC	??_C@_0P@EDKMLBKD@weapon?4mp7?4rcs?$AA@		; `string'
PUBLIC	??_C@_0BO@NKNIEBOA@weapon?4triggerbot?4mp7?4enabled?$AA@ ; `string'
PUBLIC	??_C@_0BO@HPOONFHE@weapon?4triggerbot?4mp7?4sleep?41?$AA@ ; `string'
PUBLIC	??_C@_0BO@FEMDIGLH@weapon?4triggerbot?4mp7?4sleep?42?$AA@ ; `string'
PUBLIC	??_C@_0BF@EFONBBJC@weapon?4ump45?4enabled?$AA@	; `string'
PUBLIC	??_C@_0BB@FPFLBADO@weapon?4ump45?4fov?$AA@	; `string'
PUBLIC	??_C@_0BE@BAMJHDAP@weapon?4ump45?4smooth?$AA@	; `string'
PUBLIC	??_C@_0BC@DOABINFB@weapon?4ump45?4bone?$AA@	; `string'
PUBLIC	??_C@_0BB@PEENNNNH@weapon?4ump45?4rcs?$AA@	; `string'
PUBLIC	??_C@_0CA@FBCMNPHE@weapon?4triggerbot?4ump45?4enabled?$AA@ ; `string'
PUBLIC	??_C@_0CA@PEBKELOA@weapon?4triggerbot?4ump45?4sleep?41?$AA@ ; `string'
PUBLIC	??_C@_0CA@NPDHBICD@weapon?4triggerbot?4ump45?4sleep?42?$AA@ ; `string'
PUBLIC	??_C@_0BD@CPHDCAJO@weapon?4p90?4enabled?$AA@	; `string'
PUBLIC	??_C@_0P@MDJCFIKC@weapon?4p90?4fov?$AA@		; `string'
PUBLIC	??_C@_0BC@DONIINBO@weapon?4p90?4smooth?$AA@	; `string'
PUBLIC	??_C@_0BA@MHCEJLHG@weapon?4p90?4bone?$AA@	; `string'
PUBLIC	??_C@_0P@GIIEJFEL@weapon?4p90?4rcs?$AA@		; `string'
PUBLIC	??_C@_0BO@HLGJBOB@weapon?4triggerbot?4p90?4enabled?$AA@ ; `string'
PUBLIC	??_C@_0BO@KCIAAFHF@weapon?4triggerbot?4p90?4sleep?41?$AA@ ; `string'
PUBLIC	??_C@_0BO@IJKNFGLG@weapon?4triggerbot?4p90?4sleep?42?$AA@ ; `string'
PUBLIC	??_C@_0BD@OMNEMACM@weapon?4mp9?4enabled?$AA@	; `string'
PUBLIC	??_C@_0P@NCLABNDK@weapon?4mp9?4fov?$AA@		; `string'
PUBLIC	??_C@_0BC@JFLGJOOD@weapon?4mp9?4smooth?$AA@	; `string'
PUBLIC	??_C@_0BA@DJOBKCEF@weapon?4mp9?4bone?$AA@	; `string'
PUBLIC	??_C@_0P@HJKGNAND@weapon?4mp9?4rcs?$AA@		; `string'
PUBLIC	??_C@_0BO@MEBBHBFD@weapon?4triggerbot?4mp9?4enabled?$AA@ ; `string'
PUBLIC	??_C@_0BO@GBCHOFMH@weapon?4triggerbot?4mp9?4sleep?41?$AA@ ; `string'
PUBLIC	??_C@_0BO@EKAKLGAE@weapon?4triggerbot?4mp9?4sleep?42?$AA@ ; `string'
PUBLIC	??_C@_0BF@HGHHCCBG@weapon?4bizon?4enabled?$AA@	; `string'
PUBLIC	??_C@_0BB@BBJOICBC@weapon?4bizon?4fov?$AA@	; `string'
PUBLIC	??_C@_0BE@IJOHBCGC@weapon?4bizon?4smooth?$AA@	; `string'
PUBLIC	??_C@_0BC@MJHCECA@weapon?4bizon?4bone?$AA@	; `string'
PUBLIC	??_C@_0BB@LKIIEPPL@weapon?4bizon?4rcs?$AA@	; `string'
PUBLIC	??_C@_0CA@GCLGOMPA@weapon?4triggerbot?4bizon?4enabled?$AA@ ; `string'
PUBLIC	??_C@_0CA@MHIAHIGE@weapon?4triggerbot?4bizon?4sleep?41?$AA@ ; `string'
PUBLIC	??_C@_0CA@OMKNCLKH@weapon?4triggerbot?4bizon?4sleep?42?$AA@ ; `string'
PUBLIC	??_C@_0BF@KHLCMNHE@weapon?4galil?4enabled?$AA@	; `string'
PUBLIC	??_C@_0BB@NIKDEHND@weapon?4galil?4fov?$AA@	; `string'
PUBLIC	??_C@_0BE@PHGPIBMG@weapon?4galil?4smooth?$AA@	; `string'
PUBLIC	??_C@_0BC@OADNOLMD@weapon?4galil?4bone?$AA@	; `string'
PUBLIC	??_C@_0BB@HDLFIKDK@weapon?4galil?4rcs?$AA@	; `string'
PUBLIC	??_C@_0CA@LDHDADJC@weapon?4triggerbot?4galil?4enabled?$AA@ ; `string'
PUBLIC	??_C@_0CA@BGEFJHAG@weapon?4triggerbot?4galil?4sleep?41?$AA@ ; `string'
PUBLIC	??_C@_0CA@DNGIMEMF@weapon?4triggerbot?4galil?4sleep?42?$AA@ ; `string'
PUBLIC	??_C@_0BC@NGALFHFJ@weapon?4ak?4enabled?$AA@	; `string'
PUBLIC	??_C@_0O@LCPOCCNE@weapon?4ak?4fov?$AA@		; `string'
PUBLIC	??_C@_0BB@PPHACFIC@weapon?4ak?4smooth?$AA@	; `string'
PUBLIC	??_C@_0P@HODDCDAF@weapon?4ak?4bone?$AA@		; `string'
PUBLIC	??_C@_0O@BJOIOPDN@weapon?4ak?4rcs?$AA@		; `string'
PUBLIC	??_C@_0BN@BBACLGGB@weapon?4triggerbot?4ak?4enabled?$AA@ ; `string'
PUBLIC	??_C@_0BN@LEDECCPF@weapon?4triggerbot?4ak?4sleep?41?$AA@ ; `string'
PUBLIC	??_C@_0BN@JPBJHBDG@weapon?4triggerbot?4ak?4sleep?42?$AA@ ; `string'
PUBLIC	??_C@_0BF@ODCAFDGF@weapon?4sg553?4enabled?$AA@	; `string'
PUBLIC	??_C@_0BB@NGDIMOMH@weapon?4sg553?4fov?$AA@	; `string'
PUBLIC	??_C@_0BE@GBNMODKK@weapon?4sg553?4smooth?$AA@	; `string'
PUBLIC	??_C@_0BC@PKOJKEDH@weapon?4sg553?4bone?$AA@	; `string'
PUBLIC	??_C@_0BB@HNCOADCO@weapon?4sg553?4rcs?$AA@	; `string'
PUBLIC	??_C@_0CA@PHOBJNID@weapon?4triggerbot?4sg553?4enabled?$AA@ ; `string'
PUBLIC	??_C@_0CA@FCNHAJBH@weapon?4triggerbot?4sg553?4sleep?41?$AA@ ; `string'
PUBLIC	??_C@_0CA@HJPKFKNE@weapon?4triggerbot?4sg553?4sleep?42?$AA@ ; `string'
PUBLIC	??_C@_0BE@EALKKPFI@weapon?4m4a4?4enabled?$AA@	; `string'
PUBLIC	??_C@_0BA@KGGHDJBI@weapon?4m4a4?4fov?$AA@	; `string'
PUBLIC	??_C@_0BD@EHCAKKMI@weapon?4m4a4?4smooth?$AA@	; `string'
PUBLIC	??_C@_0BB@OMPFDEIF@weapon?4m4a4?4bone?$AA@	; `string'
PUBLIC	??_C@_0BA@NHBPEPB@weapon?4m4a4?4rcs?$AA@	; `string'
PUBLIC	??_C@_0BP@IACIAGEE@weapon?4triggerbot?4m4a4?4enabled?$AA@ ; `string'
PUBLIC	??_C@_0BP@CFBOJCNA@weapon?4triggerbot?4m4a4?4sleep?41?$AA@ ; `string'
PUBLIC	??_C@_0BP@ODDMBBD@weapon?4triggerbot?4m4a4?4sleep?42?$AA@ ; `string'
PUBLIC	??_C@_0BE@KGJDGEBM@weapon?4m4a1?4enabled?$AA@	; `string'
PUBLIC	??_C@_0BA@PGKKKIKL@weapon?4m4a1?4fov?$AA@	; `string'
PUBLIC	??_C@_0BD@NLHOPIH@weapon?4m4a1?4smooth?$AA@	; `string'
PUBLIC	??_C@_0BB@LOMNBLCC@weapon?4m4a1?4bone?$AA@	; `string'
PUBLIC	??_C@_0BA@FNLMGFEC@weapon?4m4a1?4rcs?$AA@	; `string'
PUBLIC	??_C@_0BP@GGABMNAA@weapon?4triggerbot?4m4a1?4enabled?$AA@ ; `string'
PUBLIC	??_C@_0BP@MDDHFJJE@weapon?4triggerbot?4m4a1?4sleep?41?$AA@ ; `string'
PUBLIC	??_C@_0BP@OIBKAKFH@weapon?4triggerbot?4m4a1?4sleep?42?$AA@ ; `string'
PUBLIC	??_C@_0BF@MNHOFLEN@weapon?4famas?4enabled?$AA@	; `string'
PUBLIC	??_C@_0BB@DKKENCFK@weapon?4famas?4fov?$AA@	; `string'
PUBLIC	??_C@_0BE@ILNJEKNH@weapon?4famas?4smooth?$AA@	; `string'
PUBLIC	??_C@_0BC@HELLNHNC@weapon?4famas?4bone?$AA@	; `string'
PUBLIC	??_C@_0BB@JBLCBPLD@weapon?4famas?4rcs?$AA@	; `string'
PUBLIC	??_C@_0CA@NJLPJFKL@weapon?4triggerbot?4famas?4enabled?$AA@ ; `string'
PUBLIC	??_C@_0CA@HMIJABDP@weapon?4triggerbot?4famas?4sleep?41?$AA@ ; `string'
PUBLIC	??_C@_0CA@FHKEFCPM@weapon?4triggerbot?4famas?4sleep?42?$AA@ ; `string'
PUBLIC	??_C@_0BD@DPFEJHBE@weapon?4aug?4enabled?$AA@	; `string'
PUBLIC	??_C@_0P@OBKDEOFF@weapon?4aug?4fov?$AA@		; `string'
PUBLIC	??_C@_0BC@MDBFFNIE@weapon?4aug?4smooth?$AA@	; `string'
PUBLIC	??_C@_0BA@OENPMNNP@weapon?4aug?4bone?$AA@	; `string'
PUBLIC	??_C@_0P@EKLFIDLM@weapon?4aug?4rcs?$AA@		; `string'
PUBLIC	??_C@_0BO@BHJBCGGL@weapon?4triggerbot?4aug?4enabled?$AA@ ; `string'
PUBLIC	??_C@_0BO@LCKHLCPP@weapon?4triggerbot?4aug?4sleep?41?$AA@ ; `string'
PUBLIC	??_C@_0BO@JJIKOBDM@weapon?4triggerbot?4aug?4sleep?42?$AA@ ; `string'
PUBLIC	??_C@_0BF@FPPLIOKI@weapon?4scout?4enabled?$AA@	; `string'
PUBLIC	??_C@_0BB@BJGEDPGI@weapon?4scout?4fov?$AA@	; `string'
PUBLIC	??_C@_0BE@NMICDEBL@weapon?4scout?4smooth?$AA@	; `string'
PUBLIC	??_C@_0BC@LMEPEGLP@weapon?4scout?4bone?$AA@	; `string'
PUBLIC	??_C@_0CA@ELDKEAEO@weapon?4triggerbot?4scout?4enabled?$AA@ ; `string'
PUBLIC	??_C@_0CA@OOAMNENK@weapon?4triggerbot?4scout?4sleep?41?$AA@ ; `string'
PUBLIC	??_C@_0CA@MFCBIHBJ@weapon?4triggerbot?4scout?4sleep?42?$AA@ ; `string'
PUBLIC	??_C@_0BD@KCEKLEEE@weapon?4awp?4enabled?$AA@	; `string'
PUBLIC	??_C@_0P@GIOPGNFP@weapon?4awp?4fov?$AA@		; `string'
PUBLIC	??_C@_0BC@PEBKCAB@weapon?4awp?4smooth?$AA@	; `string'
PUBLIC	??_C@_0BA@EIDGIOC@weapon?4awp?4bone?$AA@	; `string'
PUBLIC	??_C@_0BO@IKIPAFDL@weapon?4triggerbot?4awp?4enabled?$AA@ ; `string'
PUBLIC	??_C@_0BO@CPLJJBKP@weapon?4triggerbot?4awp?4sleep?41?$AA@ ; `string'
PUBLIC	??_C@_0BO@EJEMCGM@weapon?4triggerbot?4awp?4sleep?42?$AA@ ; `string'
PUBLIC	??_C@_0BF@KOHEBLDN@weapon?4g3sg1?4enabled?$AA@	; `string'
PUBLIC	??_C@_0BB@MBLDGNNA@weapon?4g3sg1?4fov?$AA@	; `string'
PUBLIC	??_C@_0BE@IHPFODMK@weapon?4g3sg1?4smooth?$AA@	; `string'
PUBLIC	??_C@_0BC@HJCNKKFD@weapon?4g3sg1?4bone?$AA@	; `string'
PUBLIC	??_C@_0CA@LKLFNFNL@weapon?4triggerbot?4g3sg1?4enabled?$AA@ ; `string'
PUBLIC	??_C@_0CA@BPIDEBEP@weapon?4triggerbot?4g3sg1?4sleep?41?$AA@ ; `string'
PUBLIC	??_C@_0CA@DEKOBCIM@weapon?4triggerbot?4g3sg1?4sleep?42?$AA@ ; `string'
PUBLIC	??_C@_0BE@NFBMMBFG@weapon?4scar?4enabled?$AA@	; `string'
PUBLIC	??_C@_0BA@EEIHLDFF@weapon?4scar?4fov?$AA@	; `string'
PUBLIC	??_C@_0BD@FOAECGAA@weapon?4scar?4smooth?$AA@	; `string'
PUBLIC	??_C@_0BB@OEHKOJCC@weapon?4scar?4bone?$AA@	; `string'
PUBLIC	??_C@_0BP@BFIOGIEK@weapon?4triggerbot?4scar?4enabled?$AA@ ; `string'
PUBLIC	??_C@_0BP@LALIPMNO@weapon?4triggerbot?4scar?4sleep?41?$AA@ ; `string'
PUBLIC	??_C@_0BP@JLJFKPBN@weapon?4triggerbot?4scar?4sleep?42?$AA@ ; `string'
PUBLIC	??_C@_0BE@FDJAPAGO@weapon?4m249?4enabled?$AA@	; `string'
PUBLIC	??_C@_0BA@KNHLOFFB@weapon?4m249?4fov?$AA@	; `string'
PUBLIC	??_C@_0BD@BOHMKNA@weapon?4m249?4smooth?$AA@	; `string'
PUBLIC	??_C@_0BB@ODPONBGN@weapon?4m249?4bone?$AA@	; `string'
PUBLIC	??_C@_0BA@GGNCILI@weapon?4m249?4rcs?$AA@	; `string'
PUBLIC	??_C@_0BP@JDACFJHC@weapon?4triggerbot?4m249?4enabled?$AA@ ; `string'
PUBLIC	??_C@_0BP@DGDEMNOG@weapon?4triggerbot?4m249?4sleep?41?$AA@ ; `string'
PUBLIC	??_C@_0BP@BNBJJOCF@weapon?4triggerbot?4m249?4sleep?42?$AA@ ; `string'
PUBLIC	??_C@_0BF@ICFJHPEK@weapon?4negev?4enabled?$AA@	; `string'
PUBLIC	??_C@_0BB@EBNNGKMK@weapon?4negev?4fov?$AA@	; `string'
PUBLIC	??_C@_0BE@HDAPBPHE@weapon?4negev?4smooth?$AA@	; `string'
PUBLIC	??_C@_0BC@IEMPDNCO@weapon?4negev?4bone?$AA@	; `string'
PUBLIC	??_C@_0BB@OKMLKHCD@weapon?4negev?4rcs?$AA@	; `string'
PUBLIC	??_C@_0CA@JGJILBKM@weapon?4triggerbot?4negev?4enabled?$AA@ ; `string'
PUBLIC	??_C@_0CA@DDKOCFDI@weapon?4triggerbot?4negev?4sleep?41?$AA@ ; `string'
PUBLIC	??_C@_0CA@BIIDHGPL@weapon?4triggerbot?4negev?4sleep?42?$AA@ ; `string'
PUBLIC	??_C@_08NJBFDPPJ@csgo?4exe?$AA@			; `string'
PUBLIC	??_C@_08NGFNFJHL@Valve001?$AA@			; `string'
PUBLIC	??_C@_0BE@FJNGABL@client_panorama?4dll?$AA@	; `string'
PUBLIC	??_C@_0L@EMPDFJNI@engine?4dll?$AA@		; `string'
PUBLIC	??_C@_0P@DMCIJHMH@AnkFEST?5Aimbot?$AA@		; `string'
PUBLIC	??_C@_0BM@BKAHNBHF@Failed?5to?5alloc?5privileges?4?$AA@ ; `string'
PUBLIC	??_C@_0BK@JCEMFEAI@Failed?5to?5parse?5settings?4?$AA@ ; `string'
PUBLIC	??_C@_0CC@BGHJHEEF@Failed?5to?5get?5weapon?5information@ ; `string'
PUBLIC	??_C@_0BM@MAIAOOIA@Failed?5to?5load?5game?5thread?4?$AA@ ; `string'
PUBLIC	??_C@_0BA@JFNIOLAK@string?5too?5long?$AA@	; `string'
PUBLIC	??_C@_0BI@CFPLBAOH@invalid?5string?5position?$AA@ ; `string'
PUBLIC	?g_Nospread@@3VC_Nospread@@A			; g_Nospread
PUBLIC	?UPD@@3HA					; UPD
PUBLIC	?g_Math@@3VC_Math@@A				; g_Math
PUBLIC	?g_Module@@3VC_Module@@A			; g_Module
EXTRN	__imp___invalid_parameter_noinfo_noreturn:PROC
EXTRN	__imp__GetPrivateProfileStringA@24:PROC
EXTRN	__imp__AdjustTokenPrivileges@24:PROC
EXTRN	__imp__atof:PROC
EXTRN	__imp____std_terminate:PROC
EXTRN	__imp__PostMessageA@16:PROC
EXTRN	__imp__ReadProcessMemory@20:PROC
EXTRN	__imp__ExitProcess@4:PROC
EXTRN	___ImageBase:BYTE
EXTRN	__imp__LookupPrivilegeValueA@12:PROC
EXTRN	__imp__CreateThread@24:PROC
EXTRN	__imp__GetAsyncKeyState@4:PROC
EXTRN	__imp__CloseHandle@4:PROC
EXTRN	__imp__Process32Next@8:PROC
EXTRN	__imp__GetLastError@0:PROC
EXTRN	__imp__Sleep@4:PROC
EXTRN	??3@YAXPAX@Z:PROC				; operator delete
EXTRN	__imp__CreateToolhelp32Snapshot@8:PROC
EXTRN	_atexit:PROC
EXTRN	__imp__MessageBoxA@16:PROC
EXTRN	__imp__OpenProcess@12:PROC
EXTRN	__imp__Module32First@8:PROC
EXTRN	__imp__OpenProcessToken@12:PROC
EXTRN	__imp_?_Xlength_error@std@@YAXPBD@Z:PROC
EXTRN	__imp_?_Xout_of_range@std@@YAXPBD@Z:PROC
EXTRN	__imp_?_Xbad_alloc@std@@YAXXZ:PROC
EXTRN	??2@YAPAXI@Z:PROC				; operator new
EXTRN	__imp__Module32Next@8:PROC
EXTRN	__imp__GetCurrentProcess@0:PROC
EXTRN	__imp__memmove:PROC
EXTRN	__imp__FindWindowA@8:PROC
EXTRN	__imp__WriteProcessMemory@20:PROC
EXTRN	__imp__Process32First@8:PROC
EXTRN	__imp__GetModuleFileNameA@12:PROC
EXTRN	@__security_check_cookie@4:PROC
?g_Nospread@@3VC_Nospread@@A DB 01H DUP (?)		; g_Nospread
?g_Math@@3VC_Math@@A DB 01H DUP (?)			; g_Math
?g_Module@@3VC_Module@@A DB 01H DUP (?)			; g_Module
_BSS	ENDS
?UPD@@3HA DD	064H					; UPD
_DATA	ENDS
;	COMDAT ??_C@_0BI@CFPLBAOH@invalid?5string?5position?$AA@
CONST	SEGMENT
??_C@_0BI@CFPLBAOH@invalid?5string?5position?$AA@ DB 'invalid string posi'
	DB	'tion', 00H					; `string'
CONST	ENDS
;	COMDAT ??_C@_0BA@JFNIOLAK@string?5too?5long?$AA@
CONST	SEGMENT
??_C@_0BA@JFNIOLAK@string?5too?5long?$AA@ DB 'string too long', 00H ; `string'
CONST	ENDS
;	COMDAT ??_C@_0BM@MAIAOOIA@Failed?5to?5load?5game?5thread?4?$AA@
CONST	SEGMENT
??_C@_0BM@MAIAOOIA@Failed?5to?5load?5game?5thread?4?$AA@ DB 'Failed to lo'
	DB	'ad game thread.', 00H			; `string'
CONST	ENDS
;	COMDAT ??_C@_0CC@BGHJHEEF@Failed?5to?5get?5weapon?5information@
CONST	SEGMENT
??_C@_0CC@BGHJHEEF@Failed?5to?5get?5weapon?5information@ DB 'Failed to ge'
	DB	't weapon information.', 00H			; `string'
CONST	ENDS
;	COMDAT ??_C@_0BK@JCEMFEAI@Failed?5to?5parse?5settings?4?$AA@
CONST	SEGMENT
??_C@_0BK@JCEMFEAI@Failed?5to?5parse?5settings?4?$AA@ DB 'Failed to parse'
	DB	' settings.', 00H				; `string'
CONST	ENDS
;	COMDAT ??_C@_0BM@BKAHNBHF@Failed?5to?5alloc?5privileges?4?$AA@
CONST	SEGMENT
??_C@_0BM@BKAHNBHF@Failed?5to?5alloc?5privileges?4?$AA@ DB 'Failed to all'
	DB	'oc privileges.', 00H			; `string'
CONST	ENDS
;	COMDAT ??_C@_0P@DMCIJHMH@AnkFEST?5Aimbot?$AA@
CONST	SEGMENT
??_C@_0P@DMCIJHMH@AnkFEST?5Aimbot?$AA@ DB 'AnkFEST Aimbot', 00H ; `string'
CONST	ENDS
;	COMDAT ??_C@_0L@EMPDFJNI@engine?4dll?$AA@
CONST	SEGMENT
??_C@_0L@EMPDFJNI@engine?4dll?$AA@ DB 'engine.dll', 00H	; `string'
CONST	ENDS
;	COMDAT ??_C@_0BE@FJNGABL@client_panorama?4dll?$AA@
CONST	SEGMENT
??_C@_0BE@FJNGABL@client_panorama?4dll?$AA@ DB 'client_panorama.dll', 00H ; `string'
CONST	ENDS
;	COMDAT ??_C@_08NGFNFJHL@Valve001?$AA@
CONST	SEGMENT
??_C@_08NGFNFJHL@Valve001?$AA@ DB 'Valve001', 00H	; `string'
CONST	ENDS
;	COMDAT ??_C@_08NJBFDPPJ@csgo?4exe?$AA@
CONST	SEGMENT
??_C@_08NJBFDPPJ@csgo?4exe?$AA@ DB 'csgo.exe', 00H	; `string'
CONST	ENDS
;	COMDAT ??_C@_0CA@BIIDHGPL@weapon?4triggerbot?4negev?4sleep?42?$AA@
CONST	SEGMENT
??_C@_0CA@BIIDHGPL@weapon?4triggerbot?4negev?4sleep?42?$AA@ DB 'weapon.tr'
	DB	'iggerbot.negev.sleep.2', 00H		; `string'
CONST	ENDS
;	COMDAT ??_C@_0CA@DDKOCFDI@weapon?4triggerbot?4negev?4sleep?41?$AA@
CONST	SEGMENT
??_C@_0CA@DDKOCFDI@weapon?4triggerbot?4negev?4sleep?41?$AA@ DB 'weapon.tr'
	DB	'iggerbot.negev.sleep.1', 00H		; `string'
CONST	ENDS
;	COMDAT ??_C@_0CA@JGJILBKM@weapon?4triggerbot?4negev?4enabled?$AA@
CONST	SEGMENT
??_C@_0CA@JGJILBKM@weapon?4triggerbot?4negev?4enabled?$AA@ DB 'weapon.tri'
	DB	'ggerbot.negev.enabled', 00H			; `string'
CONST	ENDS
;	COMDAT ??_C@_0BB@OKMLKHCD@weapon?4negev?4rcs?$AA@
CONST	SEGMENT
??_C@_0BB@OKMLKHCD@weapon?4negev?4rcs?$AA@ DB 'weapon.negev.rcs', 00H ; `string'
CONST	ENDS
;	COMDAT ??_C@_0BC@IEMPDNCO@weapon?4negev?4bone?$AA@
CONST	SEGMENT
??_C@_0BC@IEMPDNCO@weapon?4negev?4bone?$AA@ DB 'weapon.negev.bone', 00H ; `string'
CONST	ENDS
;	COMDAT ??_C@_0BE@HDAPBPHE@weapon?4negev?4smooth?$AA@
CONST	SEGMENT
??_C@_0BE@HDAPBPHE@weapon?4negev?4smooth?$AA@ DB 'weapon.negev.smooth', 00H ; `string'
CONST	ENDS
;	COMDAT ??_C@_0BB@EBNNGKMK@weapon?4negev?4fov?$AA@
CONST	SEGMENT
??_C@_0BB@EBNNGKMK@weapon?4negev?4fov?$AA@ DB 'weapon.negev.fov', 00H ; `string'
CONST	ENDS
;	COMDAT ??_C@_0BF@ICFJHPEK@weapon?4negev?4enabled?$AA@
CONST	SEGMENT
??_C@_0BF@ICFJHPEK@weapon?4negev?4enabled?$AA@ DB 'weapon.negev.enabled', 00H ; `string'
CONST	ENDS
;	COMDAT ??_C@_0BP@BNBJJOCF@weapon?4triggerbot?4m249?4sleep?42?$AA@
CONST	SEGMENT
??_C@_0BP@BNBJJOCF@weapon?4triggerbot?4m249?4sleep?42?$AA@ DB 'weapon.tri'
	DB	'ggerbot.m249.sleep.2', 00H			; `string'
CONST	ENDS
;	COMDAT ??_C@_0BP@DGDEMNOG@weapon?4triggerbot?4m249?4sleep?41?$AA@
CONST	SEGMENT
??_C@_0BP@DGDEMNOG@weapon?4triggerbot?4m249?4sleep?41?$AA@ DB 'weapon.tri'
	DB	'ggerbot.m249.sleep.1', 00H			; `string'
CONST	ENDS
;	COMDAT ??_C@_0BP@JDACFJHC@weapon?4triggerbot?4m249?4enabled?$AA@
CONST	SEGMENT
??_C@_0BP@JDACFJHC@weapon?4triggerbot?4m249?4enabled?$AA@ DB 'weapon.trig'
	DB	'gerbot.m249.enabled', 00H			; `string'
CONST	ENDS
;	COMDAT ??_C@_0BA@GGNCILI@weapon?4m249?4rcs?$AA@
CONST	SEGMENT
??_C@_0BA@GGNCILI@weapon?4m249?4rcs?$AA@ DB 'weapon.m249.rcs', 00H ; `string'
CONST	ENDS
;	COMDAT ??_C@_0BB@ODPONBGN@weapon?4m249?4bone?$AA@
CONST	SEGMENT
??_C@_0BB@ODPONBGN@weapon?4m249?4bone?$AA@ DB 'weapon.m249.bone', 00H ; `string'
CONST	ENDS
;	COMDAT ??_C@_0BD@BOHMKNA@weapon?4m249?4smooth?$AA@
CONST	SEGMENT
??_C@_0BD@BOHMKNA@weapon?4m249?4smooth?$AA@ DB 'weapon.m249.smooth', 00H ; `string'
CONST	ENDS
;	COMDAT ??_C@_0BA@KNHLOFFB@weapon?4m249?4fov?$AA@
CONST	SEGMENT
??_C@_0BA@KNHLOFFB@weapon?4m249?4fov?$AA@ DB 'weapon.m249.fov', 00H ; `string'
CONST	ENDS
;	COMDAT ??_C@_0BE@FDJAPAGO@weapon?4m249?4enabled?$AA@
CONST	SEGMENT
??_C@_0BE@FDJAPAGO@weapon?4m249?4enabled?$AA@ DB 'weapon.m249.enabled', 00H ; `string'
CONST	ENDS
;	COMDAT ??_C@_0BP@JLJFKPBN@weapon?4triggerbot?4scar?4sleep?42?$AA@
CONST	SEGMENT
??_C@_0BP@JLJFKPBN@weapon?4triggerbot?4scar?4sleep?42?$AA@ DB 'weapon.tri'
	DB	'ggerbot.scar.sleep.2', 00H			; `string'
CONST	ENDS
;	COMDAT ??_C@_0BP@LALIPMNO@weapon?4triggerbot?4scar?4sleep?41?$AA@
CONST	SEGMENT
??_C@_0BP@LALIPMNO@weapon?4triggerbot?4scar?4sleep?41?$AA@ DB 'weapon.tri'
	DB	'ggerbot.scar.sleep.1', 00H			; `string'
CONST	ENDS
;	COMDAT ??_C@_0BP@BFIOGIEK@weapon?4triggerbot?4scar?4enabled?$AA@
CONST	SEGMENT
??_C@_0BP@BFIOGIEK@weapon?4triggerbot?4scar?4enabled?$AA@ DB 'weapon.trig'
	DB	'gerbot.scar.enabled', 00H			; `string'
CONST	ENDS
;	COMDAT ??_C@_0BB@OEHKOJCC@weapon?4scar?4bone?$AA@
CONST	SEGMENT
??_C@_0BB@OEHKOJCC@weapon?4scar?4bone?$AA@ DB 'weapon.scar.bone', 00H ; `string'
CONST	ENDS
;	COMDAT ??_C@_0BD@FOAECGAA@weapon?4scar?4smooth?$AA@
CONST	SEGMENT
??_C@_0BD@FOAECGAA@weapon?4scar?4smooth?$AA@ DB 'weapon.scar.smooth', 00H ; `string'
CONST	ENDS
;	COMDAT ??_C@_0BA@EEIHLDFF@weapon?4scar?4fov?$AA@
CONST	SEGMENT
??_C@_0BA@EEIHLDFF@weapon?4scar?4fov?$AA@ DB 'weapon.scar.fov', 00H ; `string'
CONST	ENDS
;	COMDAT ??_C@_0BE@NFBMMBFG@weapon?4scar?4enabled?$AA@
CONST	SEGMENT
??_C@_0BE@NFBMMBFG@weapon?4scar?4enabled?$AA@ DB 'weapon.scar.enabled', 00H ; `string'
CONST	ENDS
;	COMDAT ??_C@_0CA@DEKOBCIM@weapon?4triggerbot?4g3sg1?4sleep?42?$AA@
CONST	SEGMENT
??_C@_0CA@DEKOBCIM@weapon?4triggerbot?4g3sg1?4sleep?42?$AA@ DB 'weapon.tr'
	DB	'iggerbot.g3sg1.sleep.2', 00H		; `string'
CONST	ENDS
;	COMDAT ??_C@_0CA@BPIDEBEP@weapon?4triggerbot?4g3sg1?4sleep?41?$AA@
CONST	SEGMENT
??_C@_0CA@BPIDEBEP@weapon?4triggerbot?4g3sg1?4sleep?41?$AA@ DB 'weapon.tr'
	DB	'iggerbot.g3sg1.sleep.1', 00H		; `string'
CONST	ENDS
;	COMDAT ??_C@_0CA@LKLFNFNL@weapon?4triggerbot?4g3sg1?4enabled?$AA@
CONST	SEGMENT
??_C@_0CA@LKLFNFNL@weapon?4triggerbot?4g3sg1?4enabled?$AA@ DB 'weapon.tri'
	DB	'ggerbot.g3sg1.enabled', 00H			; `string'
CONST	ENDS
;	COMDAT ??_C@_0BC@HJCNKKFD@weapon?4g3sg1?4bone?$AA@
CONST	SEGMENT
??_C@_0BC@HJCNKKFD@weapon?4g3sg1?4bone?$AA@ DB 'weapon.g3sg1.bone', 00H ; `string'
CONST	ENDS
;	COMDAT ??_C@_0BE@IHPFODMK@weapon?4g3sg1?4smooth?$AA@
CONST	SEGMENT
??_C@_0BE@IHPFODMK@weapon?4g3sg1?4smooth?$AA@ DB 'weapon.g3sg1.smooth', 00H ; `string'
CONST	ENDS
;	COMDAT ??_C@_0BB@MBLDGNNA@weapon?4g3sg1?4fov?$AA@
CONST	SEGMENT
??_C@_0BB@MBLDGNNA@weapon?4g3sg1?4fov?$AA@ DB 'weapon.g3sg1.fov', 00H ; `string'
CONST	ENDS
;	COMDAT ??_C@_0BF@KOHEBLDN@weapon?4g3sg1?4enabled?$AA@
CONST	SEGMENT
??_C@_0BF@KOHEBLDN@weapon?4g3sg1?4enabled?$AA@ DB 'weapon.g3sg1.enabled', 00H ; `string'
CONST	ENDS
;	COMDAT ??_C@_0BO@EJEMCGM@weapon?4triggerbot?4awp?4sleep?42?$AA@
CONST	SEGMENT
??_C@_0BO@EJEMCGM@weapon?4triggerbot?4awp?4sleep?42?$AA@ DB 'weapon.trigg'
	DB	'erbot.awp.sleep.2', 00H			; `string'
CONST	ENDS
;	COMDAT ??_C@_0BO@CPLJJBKP@weapon?4triggerbot?4awp?4sleep?41?$AA@
CONST	SEGMENT
??_C@_0BO@CPLJJBKP@weapon?4triggerbot?4awp?4sleep?41?$AA@ DB 'weapon.trig'
	DB	'gerbot.awp.sleep.1', 00H			; `string'
CONST	ENDS
;	COMDAT ??_C@_0BO@IKIPAFDL@weapon?4triggerbot?4awp?4enabled?$AA@
CONST	SEGMENT
??_C@_0BO@IKIPAFDL@weapon?4triggerbot?4awp?4enabled?$AA@ DB 'weapon.trigg'
	DB	'erbot.awp.enabled', 00H			; `string'
CONST	ENDS
;	COMDAT ??_C@_0BA@EIDGIOC@weapon?4awp?4bone?$AA@
CONST	SEGMENT
??_C@_0BA@EIDGIOC@weapon?4awp?4bone?$AA@ DB 'weapon.awp.bone', 00H ; `string'
CONST	ENDS
;	COMDAT ??_C@_0BC@PEBKCAB@weapon?4awp?4smooth?$AA@
CONST	SEGMENT
??_C@_0BC@PEBKCAB@weapon?4awp?4smooth?$AA@ DB 'weapon.awp.smooth', 00H ; `string'
CONST	ENDS
;	COMDAT ??_C@_0P@GIOPGNFP@weapon?4awp?4fov?$AA@
CONST	SEGMENT
??_C@_0P@GIOPGNFP@weapon?4awp?4fov?$AA@ DB 'weapon.awp.fov', 00H ; `string'
CONST	ENDS
;	COMDAT ??_C@_0BD@KCEKLEEE@weapon?4awp?4enabled?$AA@
CONST	SEGMENT
??_C@_0BD@KCEKLEEE@weapon?4awp?4enabled?$AA@ DB 'weapon.awp.enabled', 00H ; `string'
CONST	ENDS
;	COMDAT ??_C@_0CA@MFCBIHBJ@weapon?4triggerbot?4scout?4sleep?42?$AA@
CONST	SEGMENT
??_C@_0CA@MFCBIHBJ@weapon?4triggerbot?4scout?4sleep?42?$AA@ DB 'weapon.tr'
	DB	'iggerbot.scout.sleep.2', 00H		; `string'
CONST	ENDS
;	COMDAT ??_C@_0CA@OOAMNENK@weapon?4triggerbot?4scout?4sleep?41?$AA@
CONST	SEGMENT
??_C@_0CA@OOAMNENK@weapon?4triggerbot?4scout?4sleep?41?$AA@ DB 'weapon.tr'
	DB	'iggerbot.scout.sleep.1', 00H		; `string'
CONST	ENDS
;	COMDAT ??_C@_0CA@ELDKEAEO@weapon?4triggerbot?4scout?4enabled?$AA@
CONST	SEGMENT
??_C@_0CA@ELDKEAEO@weapon?4triggerbot?4scout?4enabled?$AA@ DB 'weapon.tri'
	DB	'ggerbot.scout.enabled', 00H			; `string'
CONST	ENDS
;	COMDAT ??_C@_0BC@LMEPEGLP@weapon?4scout?4bone?$AA@
CONST	SEGMENT
??_C@_0BC@LMEPEGLP@weapon?4scout?4bone?$AA@ DB 'weapon.scout.bone', 00H ; `string'
CONST	ENDS
;	COMDAT ??_C@_0BE@NMICDEBL@weapon?4scout?4smooth?$AA@
CONST	SEGMENT
??_C@_0BE@NMICDEBL@weapon?4scout?4smooth?$AA@ DB 'weapon.scout.smooth', 00H ; `string'
CONST	ENDS
;	COMDAT ??_C@_0BB@BJGEDPGI@weapon?4scout?4fov?$AA@
CONST	SEGMENT
??_C@_0BB@BJGEDPGI@weapon?4scout?4fov?$AA@ DB 'weapon.scout.fov', 00H ; `string'
CONST	ENDS
;	COMDAT ??_C@_0BF@FPPLIOKI@weapon?4scout?4enabled?$AA@
CONST	SEGMENT
??_C@_0BF@FPPLIOKI@weapon?4scout?4enabled?$AA@ DB 'weapon.scout.enabled', 00H ; `string'
CONST	ENDS
;	COMDAT ??_C@_0BO@JJIKOBDM@weapon?4triggerbot?4aug?4sleep?42?$AA@
CONST	SEGMENT
??_C@_0BO@JJIKOBDM@weapon?4triggerbot?4aug?4sleep?42?$AA@ DB 'weapon.trig'
	DB	'gerbot.aug.sleep.2', 00H			; `string'
CONST	ENDS
;	COMDAT ??_C@_0BO@LCKHLCPP@weapon?4triggerbot?4aug?4sleep?41?$AA@
CONST	SEGMENT
??_C@_0BO@LCKHLCPP@weapon?4triggerbot?4aug?4sleep?41?$AA@ DB 'weapon.trig'
	DB	'gerbot.aug.sleep.1', 00H			; `string'
CONST	ENDS
;	COMDAT ??_C@_0BO@BHJBCGGL@weapon?4triggerbot?4aug?4enabled?$AA@
CONST	SEGMENT
??_C@_0BO@BHJBCGGL@weapon?4triggerbot?4aug?4enabled?$AA@ DB 'weapon.trigg'
	DB	'erbot.aug.enabled', 00H			; `string'
CONST	ENDS
;	COMDAT ??_C@_0P@EKLFIDLM@weapon?4aug?4rcs?$AA@
CONST	SEGMENT
??_C@_0P@EKLFIDLM@weapon?4aug?4rcs?$AA@ DB 'weapon.aug.rcs', 00H ; `string'
CONST	ENDS
;	COMDAT ??_C@_0BA@OENPMNNP@weapon?4aug?4bone?$AA@
CONST	SEGMENT
??_C@_0BA@OENPMNNP@weapon?4aug?4bone?$AA@ DB 'weapon.aug.bone', 00H ; `string'
CONST	ENDS
;	COMDAT ??_C@_0BC@MDBFFNIE@weapon?4aug?4smooth?$AA@
CONST	SEGMENT
??_C@_0BC@MDBFFNIE@weapon?4aug?4smooth?$AA@ DB 'weapon.aug.smooth', 00H ; `string'
CONST	ENDS
;	COMDAT ??_C@_0P@OBKDEOFF@weapon?4aug?4fov?$AA@
CONST	SEGMENT
??_C@_0P@OBKDEOFF@weapon?4aug?4fov?$AA@ DB 'weapon.aug.fov', 00H ; `string'
CONST	ENDS
;	COMDAT ??_C@_0BD@DPFEJHBE@weapon?4aug?4enabled?$AA@
CONST	SEGMENT
??_C@_0BD@DPFEJHBE@weapon?4aug?4enabled?$AA@ DB 'weapon.aug.enabled', 00H ; `string'
CONST	ENDS
;	COMDAT ??_C@_0CA@FHKEFCPM@weapon?4triggerbot?4famas?4sleep?42?$AA@
CONST	SEGMENT
??_C@_0CA@FHKEFCPM@weapon?4triggerbot?4famas?4sleep?42?$AA@ DB 'weapon.tr'
	DB	'iggerbot.famas.sleep.2', 00H		; `string'
CONST	ENDS
;	COMDAT ??_C@_0CA@HMIJABDP@weapon?4triggerbot?4famas?4sleep?41?$AA@
CONST	SEGMENT
??_C@_0CA@HMIJABDP@weapon?4triggerbot?4famas?4sleep?41?$AA@ DB 'weapon.tr'
	DB	'iggerbot.famas.sleep.1', 00H		; `string'
CONST	ENDS
;	COMDAT ??_C@_0CA@NJLPJFKL@weapon?4triggerbot?4famas?4enabled?$AA@
CONST	SEGMENT
??_C@_0CA@NJLPJFKL@weapon?4triggerbot?4famas?4enabled?$AA@ DB 'weapon.tri'
	DB	'ggerbot.famas.enabled', 00H			; `string'
CONST	ENDS
;	COMDAT ??_C@_0BB@JBLCBPLD@weapon?4famas?4rcs?$AA@
CONST	SEGMENT
??_C@_0BB@JBLCBPLD@weapon?4famas?4rcs?$AA@ DB 'weapon.famas.rcs', 00H ; `string'
CONST	ENDS
;	COMDAT ??_C@_0BC@HELLNHNC@weapon?4famas?4bone?$AA@
CONST	SEGMENT
??_C@_0BC@HELLNHNC@weapon?4famas?4bone?$AA@ DB 'weapon.famas.bone', 00H ; `string'
CONST	ENDS
;	COMDAT ??_C@_0BE@ILNJEKNH@weapon?4famas?4smooth?$AA@
CONST	SEGMENT
??_C@_0BE@ILNJEKNH@weapon?4famas?4smooth?$AA@ DB 'weapon.famas.smooth', 00H ; `string'
CONST	ENDS
;	COMDAT ??_C@_0BB@DKKENCFK@weapon?4famas?4fov?$AA@
CONST	SEGMENT
??_C@_0BB@DKKENCFK@weapon?4famas?4fov?$AA@ DB 'weapon.famas.fov', 00H ; `string'
CONST	ENDS
;	COMDAT ??_C@_0BF@MNHOFLEN@weapon?4famas?4enabled?$AA@
CONST	SEGMENT
??_C@_0BF@MNHOFLEN@weapon?4famas?4enabled?$AA@ DB 'weapon.famas.enabled', 00H ; `string'
CONST	ENDS
;	COMDAT ??_C@_0BP@OIBKAKFH@weapon?4triggerbot?4m4a1?4sleep?42?$AA@
CONST	SEGMENT
??_C@_0BP@OIBKAKFH@weapon?4triggerbot?4m4a1?4sleep?42?$AA@ DB 'weapon.tri'
	DB	'ggerbot.m4a1.sleep.2', 00H			; `string'
CONST	ENDS
;	COMDAT ??_C@_0BP@MDDHFJJE@weapon?4triggerbot?4m4a1?4sleep?41?$AA@
CONST	SEGMENT
??_C@_0BP@MDDHFJJE@weapon?4triggerbot?4m4a1?4sleep?41?$AA@ DB 'weapon.tri'
	DB	'ggerbot.m4a1.sleep.1', 00H			; `string'
CONST	ENDS
;	COMDAT ??_C@_0BP@GGABMNAA@weapon?4triggerbot?4m4a1?4enabled?$AA@
CONST	SEGMENT
??_C@_0BP@GGABMNAA@weapon?4triggerbot?4m4a1?4enabled?$AA@ DB 'weapon.trig'
	DB	'gerbot.m4a1.enabled', 00H			; `string'
CONST	ENDS
;	COMDAT ??_C@_0BA@FNLMGFEC@weapon?4m4a1?4rcs?$AA@
CONST	SEGMENT
??_C@_0BA@FNLMGFEC@weapon?4m4a1?4rcs?$AA@ DB 'weapon.m4a1.rcs', 00H ; `string'
CONST	ENDS
;	COMDAT ??_C@_0BB@LOMNBLCC@weapon?4m4a1?4bone?$AA@
CONST	SEGMENT
??_C@_0BB@LOMNBLCC@weapon?4m4a1?4bone?$AA@ DB 'weapon.m4a1.bone', 00H ; `string'
CONST	ENDS
;	COMDAT ??_C@_0BD@NLHOPIH@weapon?4m4a1?4smooth?$AA@
CONST	SEGMENT
??_C@_0BD@NLHOPIH@weapon?4m4a1?4smooth?$AA@ DB 'weapon.m4a1.smooth', 00H ; `string'
CONST	ENDS
;	COMDAT ??_C@_0BA@PGKKKIKL@weapon?4m4a1?4fov?$AA@
CONST	SEGMENT
??_C@_0BA@PGKKKIKL@weapon?4m4a1?4fov?$AA@ DB 'weapon.m4a1.fov', 00H ; `string'
CONST	ENDS
;	COMDAT ??_C@_0BE@KGJDGEBM@weapon?4m4a1?4enabled?$AA@
CONST	SEGMENT
??_C@_0BE@KGJDGEBM@weapon?4m4a1?4enabled?$AA@ DB 'weapon.m4a1.enabled', 00H ; `string'
CONST	ENDS
;	COMDAT ??_C@_0BP@ODDMBBD@weapon?4triggerbot?4m4a4?4sleep?42?$AA@
CONST	SEGMENT
??_C@_0BP@ODDMBBD@weapon?4triggerbot?4m4a4?4sleep?42?$AA@ DB 'weapon.trig'
	DB	'gerbot.m4a4.sleep.2', 00H			; `string'
CONST	ENDS
;	COMDAT ??_C@_0BP@CFBOJCNA@weapon?4triggerbot?4m4a4?4sleep?41?$AA@
CONST	SEGMENT
??_C@_0BP@CFBOJCNA@weapon?4triggerbot?4m4a4?4sleep?41?$AA@ DB 'weapon.tri'
	DB	'ggerbot.m4a4.sleep.1', 00H			; `string'
CONST	ENDS
;	COMDAT ??_C@_0BP@IACIAGEE@weapon?4triggerbot?4m4a4?4enabled?$AA@
CONST	SEGMENT
??_C@_0BP@IACIAGEE@weapon?4triggerbot?4m4a4?4enabled?$AA@ DB 'weapon.trig'
	DB	'gerbot.m4a4.enabled', 00H			; `string'
CONST	ENDS
;	COMDAT ??_C@_0BA@NHBPEPB@weapon?4m4a4?4rcs?$AA@
CONST	SEGMENT
??_C@_0BA@NHBPEPB@weapon?4m4a4?4rcs?$AA@ DB 'weapon.m4a4.rcs', 00H ; `string'
CONST	ENDS
;	COMDAT ??_C@_0BB@OMPFDEIF@weapon?4m4a4?4bone?$AA@
CONST	SEGMENT
??_C@_0BB@OMPFDEIF@weapon?4m4a4?4bone?$AA@ DB 'weapon.m4a4.bone', 00H ; `string'
CONST	ENDS
;	COMDAT ??_C@_0BD@EHCAKKMI@weapon?4m4a4?4smooth?$AA@
CONST	SEGMENT
??_C@_0BD@EHCAKKMI@weapon?4m4a4?4smooth?$AA@ DB 'weapon.m4a4.smooth', 00H ; `string'
CONST	ENDS
;	COMDAT ??_C@_0BA@KGGHDJBI@weapon?4m4a4?4fov?$AA@
CONST	SEGMENT
??_C@_0BA@KGGHDJBI@weapon?4m4a4?4fov?$AA@ DB 'weapon.m4a4.fov', 00H ; `string'
CONST	ENDS
;	COMDAT ??_C@_0BE@EALKKPFI@weapon?4m4a4?4enabled?$AA@
CONST	SEGMENT
??_C@_0BE@EALKKPFI@weapon?4m4a4?4enabled?$AA@ DB 'weapon.m4a4.enabled', 00H ; `string'
CONST	ENDS
;	COMDAT ??_C@_0CA@HJPKFKNE@weapon?4triggerbot?4sg553?4sleep?42?$AA@
CONST	SEGMENT
??_C@_0CA@HJPKFKNE@weapon?4triggerbot?4sg553?4sleep?42?$AA@ DB 'weapon.tr'
	DB	'iggerbot.sg553.sleep.2', 00H		; `string'
CONST	ENDS
;	COMDAT ??_C@_0CA@FCNHAJBH@weapon?4triggerbot?4sg553?4sleep?41?$AA@
CONST	SEGMENT
??_C@_0CA@FCNHAJBH@weapon?4triggerbot?4sg553?4sleep?41?$AA@ DB 'weapon.tr'
	DB	'iggerbot.sg553.sleep.1', 00H		; `string'
CONST	ENDS
;	COMDAT ??_C@_0CA@PHOBJNID@weapon?4triggerbot?4sg553?4enabled?$AA@
CONST	SEGMENT
??_C@_0CA@PHOBJNID@weapon?4triggerbot?4sg553?4enabled?$AA@ DB 'weapon.tri'
	DB	'ggerbot.sg553.enabled', 00H			; `string'
CONST	ENDS
;	COMDAT ??_C@_0BB@HNCOADCO@weapon?4sg553?4rcs?$AA@
CONST	SEGMENT
??_C@_0BB@HNCOADCO@weapon?4sg553?4rcs?$AA@ DB 'weapon.sg553.rcs', 00H ; `string'
CONST	ENDS
;	COMDAT ??_C@_0BC@PKOJKEDH@weapon?4sg553?4bone?$AA@
CONST	SEGMENT
??_C@_0BC@PKOJKEDH@weapon?4sg553?4bone?$AA@ DB 'weapon.sg553.bone', 00H ; `string'
CONST	ENDS
;	COMDAT ??_C@_0BE@GBNMODKK@weapon?4sg553?4smooth?$AA@
CONST	SEGMENT
??_C@_0BE@GBNMODKK@weapon?4sg553?4smooth?$AA@ DB 'weapon.sg553.smooth', 00H ; `string'
CONST	ENDS
;	COMDAT ??_C@_0BB@NGDIMOMH@weapon?4sg553?4fov?$AA@
CONST	SEGMENT
??_C@_0BB@NGDIMOMH@weapon?4sg553?4fov?$AA@ DB 'weapon.sg553.fov', 00H ; `string'
CONST	ENDS
;	COMDAT ??_C@_0BF@ODCAFDGF@weapon?4sg553?4enabled?$AA@
CONST	SEGMENT
??_C@_0BF@ODCAFDGF@weapon?4sg553?4enabled?$AA@ DB 'weapon.sg553.enabled', 00H ; `string'
CONST	ENDS
;	COMDAT ??_C@_0BN@JPBJHBDG@weapon?4triggerbot?4ak?4sleep?42?$AA@
CONST	SEGMENT
??_C@_0BN@JPBJHBDG@weapon?4triggerbot?4ak?4sleep?42?$AA@ DB 'weapon.trigg'
	DB	'erbot.ak.sleep.2', 00H			; `string'
CONST	ENDS
;	COMDAT ??_C@_0BN@LEDECCPF@weapon?4triggerbot?4ak?4sleep?41?$AA@
CONST	SEGMENT
??_C@_0BN@LEDECCPF@weapon?4triggerbot?4ak?4sleep?41?$AA@ DB 'weapon.trigg'
	DB	'erbot.ak.sleep.1', 00H			; `string'
CONST	ENDS
;	COMDAT ??_C@_0BN@BBACLGGB@weapon?4triggerbot?4ak?4enabled?$AA@
CONST	SEGMENT
??_C@_0BN@BBACLGGB@weapon?4triggerbot?4ak?4enabled?$AA@ DB 'weapon.trigge'
	DB	'rbot.ak.enabled', 00H			; `string'
CONST	ENDS
;	COMDAT ??_C@_0O@BJOIOPDN@weapon?4ak?4rcs?$AA@
CONST	SEGMENT
??_C@_0O@BJOIOPDN@weapon?4ak?4rcs?$AA@ DB 'weapon.ak.rcs', 00H ; `string'
CONST	ENDS
;	COMDAT ??_C@_0P@HODDCDAF@weapon?4ak?4bone?$AA@
CONST	SEGMENT
??_C@_0P@HODDCDAF@weapon?4ak?4bone?$AA@ DB 'weapon.ak.bone', 00H ; `string'
CONST	ENDS
;	COMDAT ??_C@_0BB@PPHACFIC@weapon?4ak?4smooth?$AA@
CONST	SEGMENT
??_C@_0BB@PPHACFIC@weapon?4ak?4smooth?$AA@ DB 'weapon.ak.smooth', 00H ; `string'
CONST	ENDS
;	COMDAT ??_C@_0O@LCPOCCNE@weapon?4ak?4fov?$AA@
CONST	SEGMENT
??_C@_0O@LCPOCCNE@weapon?4ak?4fov?$AA@ DB 'weapon.ak.fov', 00H ; `string'
CONST	ENDS
;	COMDAT ??_C@_0BC@NGALFHFJ@weapon?4ak?4enabled?$AA@
CONST	SEGMENT
??_C@_0BC@NGALFHFJ@weapon?4ak?4enabled?$AA@ DB 'weapon.ak.enabled', 00H ; `string'
CONST	ENDS
;	COMDAT ??_C@_0CA@DNGIMEMF@weapon?4triggerbot?4galil?4sleep?42?$AA@
CONST	SEGMENT
??_C@_0CA@DNGIMEMF@weapon?4triggerbot?4galil?4sleep?42?$AA@ DB 'weapon.tr'
	DB	'iggerbot.galil.sleep.2', 00H		; `string'
CONST	ENDS
;	COMDAT ??_C@_0CA@BGEFJHAG@weapon?4triggerbot?4galil?4sleep?41?$AA@
CONST	SEGMENT
??_C@_0CA@BGEFJHAG@weapon?4triggerbot?4galil?4sleep?41?$AA@ DB 'weapon.tr'
	DB	'iggerbot.galil.sleep.1', 00H		; `string'
CONST	ENDS
;	COMDAT ??_C@_0CA@LDHDADJC@weapon?4triggerbot?4galil?4enabled?$AA@
CONST	SEGMENT
??_C@_0CA@LDHDADJC@weapon?4triggerbot?4galil?4enabled?$AA@ DB 'weapon.tri'
	DB	'ggerbot.galil.enabled', 00H			; `string'
CONST	ENDS
;	COMDAT ??_C@_0BB@HDLFIKDK@weapon?4galil?4rcs?$AA@
CONST	SEGMENT
??_C@_0BB@HDLFIKDK@weapon?4galil?4rcs?$AA@ DB 'weapon.galil.rcs', 00H ; `string'
CONST	ENDS
;	COMDAT ??_C@_0BC@OADNOLMD@weapon?4galil?4bone?$AA@
CONST	SEGMENT
??_C@_0BC@OADNOLMD@weapon?4galil?4bone?$AA@ DB 'weapon.galil.bone', 00H ; `string'
CONST	ENDS
;	COMDAT ??_C@_0BE@PHGPIBMG@weapon?4galil?4smooth?$AA@
CONST	SEGMENT
??_C@_0BE@PHGPIBMG@weapon?4galil?4smooth?$AA@ DB 'weapon.galil.smooth', 00H ; `string'
CONST	ENDS
;	COMDAT ??_C@_0BB@NIKDEHND@weapon?4galil?4fov?$AA@
CONST	SEGMENT
??_C@_0BB@NIKDEHND@weapon?4galil?4fov?$AA@ DB 'weapon.galil.fov', 00H ; `string'
CONST	ENDS
;	COMDAT ??_C@_0BF@KHLCMNHE@weapon?4galil?4enabled?$AA@
CONST	SEGMENT
??_C@_0BF@KHLCMNHE@weapon?4galil?4enabled?$AA@ DB 'weapon.galil.enabled', 00H ; `string'
CONST	ENDS
;	COMDAT ??_C@_0CA@OMKNCLKH@weapon?4triggerbot?4bizon?4sleep?42?$AA@
CONST	SEGMENT
??_C@_0CA@OMKNCLKH@weapon?4triggerbot?4bizon?4sleep?42?$AA@ DB 'weapon.tr'
	DB	'iggerbot.bizon.sleep.2', 00H		; `string'
CONST	ENDS
;	COMDAT ??_C@_0CA@MHIAHIGE@weapon?4triggerbot?4bizon?4sleep?41?$AA@
CONST	SEGMENT
??_C@_0CA@MHIAHIGE@weapon?4triggerbot?4bizon?4sleep?41?$AA@ DB 'weapon.tr'
	DB	'iggerbot.bizon.sleep.1', 00H		; `string'
CONST	ENDS
;	COMDAT ??_C@_0CA@GCLGOMPA@weapon?4triggerbot?4bizon?4enabled?$AA@
CONST	SEGMENT
??_C@_0CA@GCLGOMPA@weapon?4triggerbot?4bizon?4enabled?$AA@ DB 'weapon.tri'
	DB	'ggerbot.bizon.enabled', 00H			; `string'
CONST	ENDS
;	COMDAT ??_C@_0BB@LKIIEPPL@weapon?4bizon?4rcs?$AA@
CONST	SEGMENT
??_C@_0BB@LKIIEPPL@weapon?4bizon?4rcs?$AA@ DB 'weapon.bizon.rcs', 00H ; `string'
CONST	ENDS
;	COMDAT ??_C@_0BC@MJHCECA@weapon?4bizon?4bone?$AA@
CONST	SEGMENT
??_C@_0BC@MJHCECA@weapon?4bizon?4bone?$AA@ DB 'weapon.bizon.bone', 00H ; `string'
CONST	ENDS
;	COMDAT ??_C@_0BE@IJOHBCGC@weapon?4bizon?4smooth?$AA@
CONST	SEGMENT
??_C@_0BE@IJOHBCGC@weapon?4bizon?4smooth?$AA@ DB 'weapon.bizon.smooth', 00H ; `string'
CONST	ENDS
;	COMDAT ??_C@_0BB@BBJOICBC@weapon?4bizon?4fov?$AA@
CONST	SEGMENT
??_C@_0BB@BBJOICBC@weapon?4bizon?4fov?$AA@ DB 'weapon.bizon.fov', 00H ; `string'
CONST	ENDS
;	COMDAT ??_C@_0BF@HGHHCCBG@weapon?4bizon?4enabled?$AA@
CONST	SEGMENT
??_C@_0BF@HGHHCCBG@weapon?4bizon?4enabled?$AA@ DB 'weapon.bizon.enabled', 00H ; `string'
CONST	ENDS
;	COMDAT ??_C@_0BO@EKAKLGAE@weapon?4triggerbot?4mp9?4sleep?42?$AA@
CONST	SEGMENT
??_C@_0BO@EKAKLGAE@weapon?4triggerbot?4mp9?4sleep?42?$AA@ DB 'weapon.trig'
	DB	'gerbot.mp9.sleep.2', 00H			; `string'
CONST	ENDS
;	COMDAT ??_C@_0BO@GBCHOFMH@weapon?4triggerbot?4mp9?4sleep?41?$AA@
CONST	SEGMENT
??_C@_0BO@GBCHOFMH@weapon?4triggerbot?4mp9?4sleep?41?$AA@ DB 'weapon.trig'
	DB	'gerbot.mp9.sleep.1', 00H			; `string'
CONST	ENDS
;	COMDAT ??_C@_0BO@MEBBHBFD@weapon?4triggerbot?4mp9?4enabled?$AA@
CONST	SEGMENT
??_C@_0BO@MEBBHBFD@weapon?4triggerbot?4mp9?4enabled?$AA@ DB 'weapon.trigg'
	DB	'erbot.mp9.enabled', 00H			; `string'
CONST	ENDS
;	COMDAT ??_C@_0P@HJKGNAND@weapon?4mp9?4rcs?$AA@
CONST	SEGMENT
??_C@_0P@HJKGNAND@weapon?4mp9?4rcs?$AA@ DB 'weapon.mp9.rcs', 00H ; `string'
CONST	ENDS
;	COMDAT ??_C@_0BA@DJOBKCEF@weapon?4mp9?4bone?$AA@
CONST	SEGMENT
??_C@_0BA@DJOBKCEF@weapon?4mp9?4bone?$AA@ DB 'weapon.mp9.bone', 00H ; `string'
CONST	ENDS
;	COMDAT ??_C@_0BC@JFLGJOOD@weapon?4mp9?4smooth?$AA@
CONST	SEGMENT
??_C@_0BC@JFLGJOOD@weapon?4mp9?4smooth?$AA@ DB 'weapon.mp9.smooth', 00H ; `string'
CONST	ENDS
;	COMDAT ??_C@_0P@NCLABNDK@weapon?4mp9?4fov?$AA@
CONST	SEGMENT
??_C@_0P@NCLABNDK@weapon?4mp9?4fov?$AA@ DB 'weapon.mp9.fov', 00H ; `string'
CONST	ENDS
;	COMDAT ??_C@_0BD@OMNEMACM@weapon?4mp9?4enabled?$AA@
CONST	SEGMENT
??_C@_0BD@OMNEMACM@weapon?4mp9?4enabled?$AA@ DB 'weapon.mp9.enabled', 00H ; `string'
CONST	ENDS
;	COMDAT ??_C@_0BO@IJKNFGLG@weapon?4triggerbot?4p90?4sleep?42?$AA@
CONST	SEGMENT
??_C@_0BO@IJKNFGLG@weapon?4triggerbot?4p90?4sleep?42?$AA@ DB 'weapon.trig'
	DB	'gerbot.p90.sleep.2', 00H			; `string'
CONST	ENDS
;	COMDAT ??_C@_0BO@KCIAAFHF@weapon?4triggerbot?4p90?4sleep?41?$AA@
CONST	SEGMENT
??_C@_0BO@KCIAAFHF@weapon?4triggerbot?4p90?4sleep?41?$AA@ DB 'weapon.trig'
	DB	'gerbot.p90.sleep.1', 00H			; `string'
CONST	ENDS
;	COMDAT ??_C@_0BO@HLGJBOB@weapon?4triggerbot?4p90?4enabled?$AA@
CONST	SEGMENT
??_C@_0BO@HLGJBOB@weapon?4triggerbot?4p90?4enabled?$AA@ DB 'weapon.trigge'
	DB	'rbot.p90.enabled', 00H			; `string'
CONST	ENDS
;	COMDAT ??_C@_0P@GIIEJFEL@weapon?4p90?4rcs?$AA@
CONST	SEGMENT
??_C@_0P@GIIEJFEL@weapon?4p90?4rcs?$AA@ DB 'weapon.p90.rcs', 00H ; `string'
CONST	ENDS
;	COMDAT ??_C@_0BA@MHCEJLHG@weapon?4p90?4bone?$AA@
CONST	SEGMENT
??_C@_0BA@MHCEJLHG@weapon?4p90?4bone?$AA@ DB 'weapon.p90.bone', 00H ; `string'
CONST	ENDS
;	COMDAT ??_C@_0BC@DONIINBO@weapon?4p90?4smooth?$AA@
CONST	SEGMENT
??_C@_0BC@DONIINBO@weapon?4p90?4smooth?$AA@ DB 'weapon.p90.smooth', 00H ; `string'
CONST	ENDS
;	COMDAT ??_C@_0P@MDJCFIKC@weapon?4p90?4fov?$AA@
CONST	SEGMENT
??_C@_0P@MDJCFIKC@weapon?4p90?4fov?$AA@ DB 'weapon.p90.fov', 00H ; `string'
CONST	ENDS
;	COMDAT ??_C@_0BD@CPHDCAJO@weapon?4p90?4enabled?$AA@
CONST	SEGMENT
??_C@_0BD@CPHDCAJO@weapon?4p90?4enabled?$AA@ DB 'weapon.p90.enabled', 00H ; `string'
CONST	ENDS
;	COMDAT ??_C@_0CA@NPDHBICD@weapon?4triggerbot?4ump45?4sleep?42?$AA@
CONST	SEGMENT
??_C@_0CA@NPDHBICD@weapon?4triggerbot?4ump45?4sleep?42?$AA@ DB 'weapon.tr'
	DB	'iggerbot.ump45.sleep.2', 00H		; `string'
CONST	ENDS
;	COMDAT ??_C@_0CA@PEBKELOA@weapon?4triggerbot?4ump45?4sleep?41?$AA@
CONST	SEGMENT
??_C@_0CA@PEBKELOA@weapon?4triggerbot?4ump45?4sleep?41?$AA@ DB 'weapon.tr'
	DB	'iggerbot.ump45.sleep.1', 00H		; `string'
CONST	ENDS
;	COMDAT ??_C@_0CA@FBCMNPHE@weapon?4triggerbot?4ump45?4enabled?$AA@
CONST	SEGMENT
??_C@_0CA@FBCMNPHE@weapon?4triggerbot?4ump45?4enabled?$AA@ DB 'weapon.tri'
	DB	'ggerbot.ump45.enabled', 00H			; `string'
CONST	ENDS
;	COMDAT ??_C@_0BB@PEENNNNH@weapon?4ump45?4rcs?$AA@
CONST	SEGMENT
??_C@_0BB@PEENNNNH@weapon?4ump45?4rcs?$AA@ DB 'weapon.ump45.rcs', 00H ; `string'
CONST	ENDS
;	COMDAT ??_C@_0BC@DOABINFB@weapon?4ump45?4bone?$AA@
CONST	SEGMENT
??_C@_0BC@DOABINFB@weapon?4ump45?4bone?$AA@ DB 'weapon.ump45.bone', 00H ; `string'
CONST	ENDS
;	COMDAT ??_C@_0BE@BAMJHDAP@weapon?4ump45?4smooth?$AA@
CONST	SEGMENT
??_C@_0BE@BAMJHDAP@weapon?4ump45?4smooth?$AA@ DB 'weapon.ump45.smooth', 00H ; `string'
CONST	ENDS
;	COMDAT ??_C@_0BB@FPFLBADO@weapon?4ump45?4fov?$AA@
CONST	SEGMENT
??_C@_0BB@FPFLBADO@weapon?4ump45?4fov?$AA@ DB 'weapon.ump45.fov', 00H ; `string'
CONST	ENDS
;	COMDAT ??_C@_0BF@EFONBBJC@weapon?4ump45?4enabled?$AA@
CONST	SEGMENT
??_C@_0BF@EFONBBJC@weapon?4ump45?4enabled?$AA@ DB 'weapon.ump45.enabled', 00H ; `string'
CONST	ENDS
;	COMDAT ??_C@_0BO@FEMDIGLH@weapon?4triggerbot?4mp7?4sleep?42?$AA@
CONST	SEGMENT
??_C@_0BO@FEMDIGLH@weapon?4triggerbot?4mp7?4sleep?42?$AA@ DB 'weapon.trig'
	DB	'gerbot.mp7.sleep.2', 00H			; `string'
CONST	ENDS
;	COMDAT ??_C@_0BO@HPOONFHE@weapon?4triggerbot?4mp7?4sleep?41?$AA@
CONST	SEGMENT
??_C@_0BO@HPOONFHE@weapon?4triggerbot?4mp7?4sleep?41?$AA@ DB 'weapon.trig'
	DB	'gerbot.mp7.sleep.1', 00H			; `string'
CONST	ENDS
;	COMDAT ??_C@_0BO@NKNIEBOA@weapon?4triggerbot?4mp7?4enabled?$AA@
CONST	SEGMENT
??_C@_0BO@NKNIEBOA@weapon?4triggerbot?4mp7?4enabled?$AA@ DB 'weapon.trigg'
	DB	'erbot.mp7.enabled', 00H			; `string'
CONST	ENDS
;	COMDAT ??_C@_0P@EDKMLBKD@weapon?4mp7?4rcs?$AA@
CONST	SEGMENT
??_C@_0P@EDKMLBKD@weapon?4mp7?4rcs?$AA@ DB 'weapon.mp7.rcs', 00H ; `string'
CONST	ENDS
;	COMDAT ??_C@_0BA@GJNONJBI@weapon?4mp7?4bone?$AA@
CONST	SEGMENT
??_C@_0BA@GJNONJBI@weapon?4mp7?4bone?$AA@ DB 'weapon.mp7.bone', 00H ; `string'
CONST	ENDS
;	COMDAT ??_C@_0BC@FNHEEFHB@weapon?4mp7?4smooth?$AA@
CONST	SEGMENT
??_C@_0BC@FNHEEFHB@weapon?4mp7?4smooth?$AA@ DB 'weapon.mp7.smooth', 00H ; `string'
CONST	ENDS
;	COMDAT ??_C@_0P@OILKHMEK@weapon?4mp7?4fov?$AA@
CONST	SEGMENT
??_C@_0P@OILKHMEK@weapon?4mp7?4fov?$AA@ DB 'weapon.mp7.fov', 00H ; `string'
CONST	ENDS
;	COMDAT ??_C@_0BD@PCBNPAJP@weapon?4mp7?4enabled?$AA@
CONST	SEGMENT
??_C@_0BD@PCBNPAJP@weapon?4mp7?4enabled?$AA@ DB 'weapon.mp7.enabled', 00H ; `string'
CONST	ENDS
;	COMDAT ??_C@_0CA@PMJONLII@weapon?4triggerbot?4mac10?4sleep?42?$AA@
CONST	SEGMENT
??_C@_0CA@PMJONLII@weapon?4triggerbot?4mac10?4sleep?42?$AA@ DB 'weapon.tr'
	DB	'iggerbot.mac10.sleep.2', 00H		; `string'
CONST	ENDS
;	COMDAT ??_C@_0CA@NHLDIIEL@weapon?4triggerbot?4mac10?4sleep?41?$AA@
CONST	SEGMENT
??_C@_0CA@NHLDIIEL@weapon?4triggerbot?4mac10?4sleep?41?$AA@ DB 'weapon.tr'
	DB	'iggerbot.mac10.sleep.1', 00H		; `string'
CONST	ENDS
;	COMDAT ??_C@_0CA@HCIFBMNP@weapon?4triggerbot?4mac10?4enabled?$AA@
CONST	SEGMENT
??_C@_0CA@HCIFBMNP@weapon?4triggerbot?4mac10?4enabled?$AA@ DB 'weapon.tri'
	DB	'ggerbot.mac10.enabled', 00H			; `string'
CONST	ENDS
;	COMDAT ??_C@_0BB@NGMBGHAD@weapon?4mac10?4rcs?$AA@
CONST	SEGMENT
??_C@_0BB@NGMBGHAD@weapon?4mac10?4rcs?$AA@ DB 'weapon.mac10.rcs', 00H ; `string'
CONST	ENDS
;	COMDAT ??_C@_0BC@LPJNBHCG@weapon?4mac10?4bone?$AA@
CONST	SEGMENT
??_C@_0BC@LPJNBHCG@weapon?4mac10?4bone?$AA@ DB 'weapon.mac10.bone', 00H ; `string'
CONST	ENDS
;	COMDAT ??_C@_0BE@GAGNGHPI@weapon?4mac10?4smooth?$AA@
CONST	SEGMENT
??_C@_0BE@GAGNGHPI@weapon?4mac10?4smooth?$AA@ DB 'weapon.mac10.smooth', 00H ; `string'
CONST	ENDS
;	COMDAT ??_C@_0BB@HNNHKKOK@weapon?4mac10?4fov?$AA@
CONST	SEGMENT
??_C@_0BB@HNNHKKOK@weapon?4mac10?4fov?$AA@ DB 'weapon.mac10.fov', 00H ; `string'
CONST	ENDS
;	COMDAT ??_C@_0BF@GGEENCDJ@weapon?4mac10?4enabled?$AA@
CONST	SEGMENT
??_C@_0BF@GGEENCDJ@weapon?4mac10?4enabled?$AA@ DB 'weapon.mac10.enabled', 00H ; `string'
CONST	ENDS
;	COMDAT ??_C@_0BP@KJGJJNEP@weapon?4triggerbot?4mag7?4sleep?42?$AA@
CONST	SEGMENT
??_C@_0BP@KJGJJNEP@weapon?4triggerbot?4mag7?4sleep?42?$AA@ DB 'weapon.tri'
	DB	'ggerbot.mag7.sleep.2', 00H			; `string'
CONST	ENDS
;	COMDAT ??_C@_0BP@ICEEMOIM@weapon?4triggerbot?4mag7?4sleep?41?$AA@
CONST	SEGMENT
??_C@_0BP@ICEEMOIM@weapon?4triggerbot?4mag7?4sleep?41?$AA@ DB 'weapon.tri'
	DB	'ggerbot.mag7.sleep.1', 00H			; `string'
CONST	ENDS
;	COMDAT ??_C@_0BP@CHHCFKBI@weapon?4triggerbot?4mag7?4enabled?$AA@
CONST	SEGMENT
??_C@_0BP@CHHCFKBI@weapon?4triggerbot?4mag7?4enabled?$AA@ DB 'weapon.trig'
	DB	'gerbot.mag7.enabled', 00H			; `string'
CONST	ENDS
;	COMDAT ??_C@_0BB@CDLHCDKG@weapon?4mag7?4bone?$AA@
CONST	SEGMENT
??_C@_0BB@CDLHCDKG@weapon?4mag7?4bone?$AA@ DB 'weapon.mag7.bone', 00H ; `string'
CONST	ENDS
;	COMDAT ??_C@_0BD@HKFKJHCM@weapon?4mag7?4smooth?$AA@
CONST	SEGMENT
??_C@_0BD@HKFKJHCM@weapon?4mag7?4smooth?$AA@ DB 'weapon.mag7.smooth', 00H ; `string'
CONST	ENDS
;	COMDAT ??_C@_0BA@FOOFIDCO@weapon?4mag7?4fov?$AA@
CONST	SEGMENT
??_C@_0BA@FOOFIDCO@weapon?4mag7?4fov?$AA@ DB 'weapon.mag7.fov', 00H ; `string'
CONST	ENDS
;	COMDAT ??_C@_0BE@OHOAPDAE@weapon?4mag7?4enabled?$AA@
CONST	SEGMENT
??_C@_0BE@OHOAPDAE@weapon?4mag7?4enabled?$AA@ DB 'weapon.mag7.enabled', 00H ; `string'
CONST	ENDS
;	COMDAT ??_C@_0CD@BIANGIKB@weapon?4triggerbot?4swadeoff?4sleep@
CONST	SEGMENT
??_C@_0CD@BIANGIKB@weapon?4triggerbot?4swadeoff?4sleep@ DB 'weapon.trigge'
	DB	'rbot.swadeoff.sleep.2', 00H			; `string'
CONST	ENDS
;	COMDAT ??_C@_0CD@DDCADLGC@weapon?4triggerbot?4swadeoff?4sleep@
CONST	SEGMENT
??_C@_0CD@DDCADLGC@weapon?4triggerbot?4swadeoff?4sleep@ DB 'weapon.trigge'
	DB	'rbot.swadeoff.sleep.1', 00H			; `string'
CONST	ENDS
;	COMDAT ??_C@_0CD@JGBGKPPG@weapon?4triggerbot?4swadeoff?4enabl@
CONST	SEGMENT
??_C@_0CD@JGBGKPPG@weapon?4triggerbot?4swadeoff?4enabl@ DB 'weapon.trigge'
	DB	'rbot.swadeoff.enabled', 00H			; `string'
CONST	ENDS
;	COMDAT ??_C@_0BF@OIBMPHBA@weapon?4swadeoff?4bone?$AA@
CONST	SEGMENT
??_C@_0BF@OIBMPHBA@weapon?4swadeoff?4bone?$AA@ DB 'weapon.swadeoff.bone', 00H ; `string'
CONST	ENDS
;	COMDAT ??_C@_0BH@EJHLEDHE@weapon?4swadeoff?4smooth?$AA@
CONST	SEGMENT
??_C@_0BH@EJHLEDHE@weapon?4swadeoff?4smooth?$AA@ DB 'weapon.swadeoff.smoo'
	DB	'th', 00H					; `string'
CONST	ENDS
;	COMDAT ??_C@_0BE@JEICLJJO@weapon?4swadeoff?4fov?$AA@
CONST	SEGMENT
??_C@_0BE@JEICLJJO@weapon?4swadeoff?4fov?$AA@ DB 'weapon.swadeoff.fov', 00H ; `string'
CONST	ENDS
;	COMDAT ??_C@_0BI@ICGDALBG@weapon?4swadeoff?4enabled?$AA@
CONST	SEGMENT
??_C@_0BI@ICGDALBG@weapon?4swadeoff?4enabled?$AA@ DB 'weapon.swadeoff.ena'
	DB	'bled', 00H					; `string'
CONST	ENDS
;	COMDAT ??_C@_0CB@HFHOILOH@weapon?4triggerbot?4xm1014?4sleep?42@
CONST	SEGMENT
??_C@_0CB@HFHOILOH@weapon?4triggerbot?4xm1014?4sleep?42@ DB 'weapon.trigg'
	DB	'erbot.xm1014.sleep.2', 00H			; `string'
CONST	ENDS
;	COMDAT ??_C@_0CB@FOFDNICE@weapon?4triggerbot?4xm1014?4sleep?41@
CONST	SEGMENT
??_C@_0CB@FOFDNICE@weapon?4triggerbot?4xm1014?4sleep?41@ DB 'weapon.trigg'
	DB	'erbot.xm1014.sleep.1', 00H			; `string'
CONST	ENDS
;	COMDAT ??_C@_0CB@PLGFEMLA@weapon?4triggerbot?4xm1014?4enabled@
CONST	SEGMENT
??_C@_0CB@PLGFEMLA@weapon?4triggerbot?4xm1014?4enabled@ DB 'weapon.trigge'
	DB	'rbot.xm1014.enabled', 00H			; `string'
CONST	ENDS
;	COMDAT ??_C@_0BD@MFOEIICJ@weapon?4xm1014?4bone?$AA@
CONST	SEGMENT
??_C@_0BD@MFOEIICJ@weapon?4xm1014?4bone?$AA@ DB 'weapon.xm1014.bone', 00H ; `string'
CONST	ENDS
;	COMDAT ??_C@_0BF@IHEFIPJL@weapon?4xm1014?4smooth?$AA@
CONST	SEGMENT
??_C@_0BF@IHEFIPJL@weapon?4xm1014?4smooth?$AA@ DB 'weapon.xm1014.smooth', 00H ; `string'
CONST	ENDS
;	COMDAT ??_C@_0BC@GOBCANGB@weapon?4xm1014?4fov?$AA@
CONST	SEGMENT
??_C@_0BC@GOBCANGB@weapon?4xm1014?4fov?$AA@ DB 'weapon.xm1014.fov', 00H ; `string'
CONST	ENDS
;	COMDAT ??_C@_0BG@LCBIMKDD@weapon?4xm1014?4enabled?$AA@
CONST	SEGMENT
??_C@_0BG@LCBIMKDD@weapon?4xm1014?4enabled?$AA@ DB 'weapon.xm1014.enabled'
	DB	00H						; `string'
CONST	ENDS
;	COMDAT ??_C@_0BP@CGOAMPJL@weapon?4triggerbot?4nova?4sleep?42?$AA@
CONST	SEGMENT
??_C@_0BP@CGOAMPJL@weapon?4triggerbot?4nova?4sleep?42?$AA@ DB 'weapon.tri'
	DB	'ggerbot.nova.sleep.2', 00H			; `string'
CONST	ENDS
;	COMDAT ??_C@_0BP@NMNJMFI@weapon?4triggerbot?4nova?4sleep?41?$AA@
CONST	SEGMENT
??_C@_0BP@NMNJMFI@weapon?4triggerbot?4nova?4sleep?41?$AA@ DB 'weapon.trig'
	DB	'gerbot.nova.sleep.1', 00H			; `string'
CONST	ENDS
;	COMDAT ??_C@_0BP@KIPLAIMM@weapon?4triggerbot?4nova?4enabled?$AA@
CONST	SEGMENT
??_C@_0BP@KIPLAIMM@weapon?4triggerbot?4nova?4enabled?$AA@ DB 'weapon.trig'
	DB	'gerbot.nova.enabled', 00H			; `string'
CONST	ENDS
;	COMDAT ??_C@_0BB@PAFGKOAP@weapon?4nova?4bone?$AA@
CONST	SEGMENT
??_C@_0BB@PAFGKOAP@weapon?4nova?4bone?$AA@ DB 'weapon.nova.bone', 00H ; `string'
CONST	ENDS
;	COMDAT ??_C@_0BD@JGJGLMPA@weapon?4nova?4smooth?$AA@
CONST	SEGMENT
??_C@_0BD@JGJGLMPA@weapon?4nova?4smooth?$AA@ DB 'weapon.nova.smooth', 00H ; `string'
CONST	ENDS
;	COMDAT ??_C@_0BA@GJJMNBEJ@weapon?4nova?4fov?$AA@
CONST	SEGMENT
??_C@_0BA@GJJMNBEJ@weapon?4nova?4fov?$AA@ DB 'weapon.nova.fov', 00H ; `string'
CONST	ENDS
;	COMDAT ??_C@_0BE@GIGJKBNA@weapon?4nova?4enabled?$AA@
CONST	SEGMENT
??_C@_0BE@GIGJKBNA@weapon?4nova?4enabled?$AA@ DB 'weapon.nova.enabled', 00H ; `string'
CONST	ENDS
;	COMDAT ??_C@_0BP@FCEONFBE@weapon?4triggerbot?4cz75?4sleep?42?$AA@
CONST	SEGMENT
??_C@_0BP@FCEONFBE@weapon?4triggerbot?4cz75?4sleep?42?$AA@ DB 'weapon.tri'
	DB	'ggerbot.cz75.sleep.2', 00H			; `string'
CONST	ENDS
;	COMDAT ??_C@_0BP@HJGDIGNH@weapon?4triggerbot?4cz75?4sleep?41?$AA@
CONST	SEGMENT
??_C@_0BP@HJGDIGNH@weapon?4triggerbot?4cz75?4sleep?41?$AA@ DB 'weapon.tri'
	DB	'ggerbot.cz75.sleep.1', 00H			; `string'
CONST	ENDS
;	COMDAT ??_C@_0BP@NMFFBCED@weapon?4triggerbot?4cz75?4enabled?$AA@
CONST	SEGMENT
??_C@_0BP@NMFFBCED@weapon?4triggerbot?4cz75?4enabled?$AA@ DB 'weapon.trig'
	DB	'gerbot.cz75.enabled', 00H			; `string'
CONST	ENDS
;	COMDAT ??_C@_0BB@NBFCCNFG@weapon?4cz75?4bone?$AA@
CONST	SEGMENT
??_C@_0BB@NBFCCNFG@weapon?4cz75?4bone?$AA@ DB 'weapon.cz75.bone', 00H ; `string'
CONST	ENDS
;	COMDAT ??_C@_0BD@IJFOKJHD@weapon?4cz75?4smooth?$AA@
CONST	SEGMENT
??_C@_0BD@IJFOKJHD@weapon?4cz75?4smooth?$AA@ DB 'weapon.cz75.smooth', 00H ; `string'
CONST	ENDS
;	COMDAT ??_C@_0BA@NJOLDNHN@weapon?4cz75?4fov?$AA@
CONST	SEGMENT
??_C@_0BA@NJOLDNHN@weapon?4cz75?4fov?$AA@ DB 'weapon.cz75.fov', 00H ; `string'
CONST	ENDS
;	COMDAT ??_C@_0BE@BMMHLLFP@weapon?4cz75?4enabled?$AA@
CONST	SEGMENT
??_C@_0BE@BMMHLLFP@weapon?4cz75?4enabled?$AA@ DB 'weapon.cz75.enabled', 00H ; `string'
CONST	ENDS
;	COMDAT ??_C@_0CE@PICPOMND@weapon?4triggerbot?4fiveseven?4slee@
CONST	SEGMENT
??_C@_0CE@PICPOMND@weapon?4triggerbot?4fiveseven?4slee@ DB 'weapon.trigge'
	DB	'rbot.fiveseven.sleep.2', 00H		; `string'
CONST	ENDS
;	COMDAT ??_C@_0CE@NDACLPBA@weapon?4triggerbot?4fiveseven?4slee@
CONST	SEGMENT
??_C@_0CE@NDACLPBA@weapon?4triggerbot?4fiveseven?4slee@ DB 'weapon.trigge'
	DB	'rbot.fiveseven.sleep.1', 00H		; `string'
CONST	ENDS
;	COMDAT ??_C@_0CE@HGDECLIE@weapon?4triggerbot?4fiveseven?4enab@
CONST	SEGMENT
??_C@_0CE@HGDECLIE@weapon?4triggerbot?4fiveseven?4enab@ DB 'weapon.trigge'
	DB	'rbot.fiveseven.enabled', 00H		; `string'
CONST	ENDS
;	COMDAT ??_C@_0BG@IOAOBPDM@weapon?4fiveseven?4bone?$AA@
CONST	SEGMENT
??_C@_0BG@IOAOBPDM@weapon?4fiveseven?4bone?$AA@ DB 'weapon.fiveseven.bone'
	DB	00H						; `string'
CONST	ENDS
;	COMDAT ??_C@_0BI@NOJLCEIC@weapon?4fiveseven?4smooth?$AA@
CONST	SEGMENT
??_C@_0BI@NOJLCEIC@weapon?4fiveseven?4smooth?$AA@ DB 'weapon.fiveseven.sm'
	DB	'ooth', 00H					; `string'
CONST	ENDS
;	COMDAT ??_C@_0BF@IAFBFPEE@weapon?4fiveseven?4fov?$AA@
CONST	SEGMENT
??_C@_0BF@IAFBFPEE@weapon?4fiveseven?4fov?$AA@ DB 'weapon.fiveseven.fov', 00H ; `string'
CONST	ENDS
;	COMDAT ??_C@_0BJ@NGCKLMFI@weapon?4fiveseven?4enabled?$AA@
CONST	SEGMENT
??_C@_0BJ@NGCKLMFI@weapon?4fiveseven?4enabled?$AA@ DB 'weapon.fiveseven.e'
	DB	'nabled', 00H				; `string'
CONST	ENDS
;	COMDAT ??_C@_0BO@LLFDGHGN@weapon?4triggerbot?4usp?4sleep?42?$AA@
CONST	SEGMENT
??_C@_0BO@LLFDGHGN@weapon?4triggerbot?4usp?4sleep?42?$AA@ DB 'weapon.trig'
	DB	'gerbot.usp.sleep.2', 00H			; `string'
CONST	ENDS
;	COMDAT ??_C@_0BO@JAHODEKO@weapon?4triggerbot?4usp?4sleep?41?$AA@
CONST	SEGMENT
??_C@_0BO@JAHODEKO@weapon?4triggerbot?4usp?4sleep?41?$AA@ DB 'weapon.trig'
	DB	'gerbot.usp.sleep.1', 00H			; `string'
CONST	ENDS
;	COMDAT ??_C@_0BO@DFEIKADK@weapon?4triggerbot?4usp?4enabled?$AA@
CONST	SEGMENT
??_C@_0BO@DFEIKADK@weapon?4triggerbot?4usp?4enabled?$AA@ DB 'weapon.trigg'
	DB	'erbot.usp.enabled', 00H			; `string'
CONST	ENDS
;	COMDAT ??_C@_0BA@HBOFHFGF@weapon?4usp?4bone?$AA@
CONST	SEGMENT
??_C@_0BA@HBOFHFGF@weapon?4usp?4bone?$AA@ DB 'weapon.usp.bone', 00H ; `string'
CONST	ENDS
;	COMDAT ??_C@_0BC@BIIFLFDC@weapon?4usp?4smooth?$AA@
CONST	SEGMENT
??_C@_0BC@BIIFLFDC@weapon?4usp?4smooth?$AA@ DB 'weapon.usp.smooth', 00H ; `string'
CONST	ENDS
;	COMDAT ??_C@_0P@GEFBHGJN@weapon?4usp?4fov?$AA@
CONST	SEGMENT
??_C@_0P@GEFBHGJN@weapon?4usp?4fov?$AA@ DB 'weapon.usp.fov', 00H ; `string'
CONST	ENDS
;	COMDAT ??_C@_0BD@BNINBBEF@weapon?4usp?4enabled?$AA@
CONST	SEGMENT
??_C@_0BD@BNINBBEF@weapon?4usp?4enabled?$AA@ DB 'weapon.usp.enabled', 00H ; `string'
CONST	ENDS
;	COMDAT ??_C@_0CC@JMLHGADF@weapon?4triggerbot?4hkp2000?4sleep?4@
CONST	SEGMENT
??_C@_0CC@JMLHGADF@weapon?4triggerbot?4hkp2000?4sleep?4@ DB 'weapon.trigg'
	DB	'erbot.hkp2000.sleep.2', 00H			; `string'
CONST	ENDS
;	COMDAT ??_C@_0CC@LHJKDDPG@weapon?4triggerbot?4hkp2000?4sleep?4@
CONST	SEGMENT
??_C@_0CC@LHJKDDPG@weapon?4triggerbot?4hkp2000?4sleep?4@ DB 'weapon.trigg'
	DB	'erbot.hkp2000.sleep.1', 00H			; `string'
CONST	ENDS
;	COMDAT ??_C@_0CC@BCKMKHGC@weapon?4triggerbot?4hkp2000?4enable@
CONST	SEGMENT
??_C@_0CC@BCKMKHGC@weapon?4triggerbot?4hkp2000?4enable@ DB 'weapon.trigge'
	DB	'rbot.hkp2000.enabled', 00H			; `string'
CONST	ENDS
;	COMDAT ??_C@_0BE@ICMHINCG@weapon?4hkp2000?4bone?$AA@
CONST	SEGMENT
??_C@_0BE@ICMHINCG@weapon?4hkp2000?4bone?$AA@ DB 'weapon.hkp2000.bone', 00H ; `string'
CONST	ENDS
;	COMDAT ??_C@_0BG@HALHCAPI@weapon?4hkp2000?4smooth?$AA@
CONST	SEGMENT
??_C@_0BG@HALHCAPI@weapon?4hkp2000?4smooth?$AA@ DB 'weapon.hkp2000.smooth'
	DB	00H						; `string'
CONST	ENDS
;	COMDAT ??_C@_0BD@PPNIHNIP@weapon?4hkp2000?4fov?$AA@
CONST	SEGMENT
??_C@_0BD@PPNIHNIP@weapon?4hkp2000?4fov?$AA@ DB 'weapon.hkp2000.fov', 00H ; `string'
CONST	ENDS
;	COMDAT ??_C@_0BH@GGFEAIHO@weapon?4hkp2000?4enabled?$AA@
CONST	SEGMENT
??_C@_0BH@GGFEAIHO@weapon?4hkp2000?4enabled?$AA@ DB 'weapon.hkp2000.enabl'
	DB	'ed', 00H					; `string'
CONST	ENDS
;	COMDAT ??_C@_0CB@ODCFFKNN@weapon?4triggerbot?4deagle?4sleep?42@
CONST	SEGMENT
??_C@_0CB@ODCFFKNN@weapon?4triggerbot?4deagle?4sleep?42@ DB 'weapon.trigg'
	DB	'erbot.deagle.sleep.2', 00H			; `string'
CONST	ENDS
;	COMDAT ??_C@_0CB@MIAIAJBO@weapon?4triggerbot?4deagle?4sleep?41@
CONST	SEGMENT
??_C@_0CB@MIAIAJBO@weapon?4triggerbot?4deagle?4sleep?41@ DB 'weapon.trigg'
	DB	'erbot.deagle.sleep.1', 00H			; `string'
CONST	ENDS
;	COMDAT ??_C@_0CB@GNDOJNIK@weapon?4triggerbot?4deagle?4enabled@
CONST	SEGMENT
??_C@_0CB@GNDOJNIK@weapon?4triggerbot?4deagle?4enabled@ DB 'weapon.trigge'
	DB	'rbot.deagle.enabled', 00H			; `string'
CONST	ENDS
;	COMDAT ??_C@_0BD@JCJDGHPC@weapon?4deagle?4bone?$AA@
CONST	SEGMENT
??_C@_0BD@JCJDGHPC@weapon?4deagle?4bone?$AA@ DB 'weapon.deagle.bone', 00H ; `string'
CONST	ENDS
;	COMDAT ??_C@_0BF@NFDMDLNB@weapon?4deagle?4smooth?$AA@
CONST	SEGMENT
??_C@_0BF@NFDMDLNB@weapon?4deagle?4smooth?$AA@ DB 'weapon.deagle.smooth', 00H ; `string'
CONST	ENDS
;	COMDAT ??_C@_0BC@HBEIPDBF@weapon?4deagle?4fov?$AA@
CONST	SEGMENT
??_C@_0BC@HBEIPDBF@weapon?4deagle?4fov?$AA@ DB 'weapon.deagle.fov', 00H ; `string'
CONST	ENDS
;	COMDAT ??_C@_0BG@CEEDBLAJ@weapon?4deagle?4enabled?$AA@
CONST	SEGMENT
??_C@_0BG@CEEDBLAJ@weapon?4deagle?4enabled?$AA@ DB 'weapon.deagle.enabled'
	DB	00H						; `string'
CONST	ENDS
;	COMDAT ??_C@_0BP@DHONEJDD@weapon?4triggerbot?4tec9?4sleep?42?$AA@
CONST	SEGMENT
??_C@_0BP@DHONEJDD@weapon?4triggerbot?4tec9?4sleep?42?$AA@ DB 'weapon.tri'
	DB	'ggerbot.tec9.sleep.2', 00H			; `string'
CONST	ENDS
;	COMDAT ??_C@_0BP@BMMABKPA@weapon?4triggerbot?4tec9?4sleep?41?$AA@
CONST	SEGMENT
??_C@_0BP@BMMABKPA@weapon?4triggerbot?4tec9?4sleep?41?$AA@ DB 'weapon.tri'
	DB	'ggerbot.tec9.sleep.1', 00H			; `string'
CONST	ENDS
;	COMDAT ??_C@_0BP@LJPGIOGE@weapon?4triggerbot?4tec9?4enabled?$AA@
CONST	SEGMENT
??_C@_0BP@LJPGIOGE@weapon?4triggerbot?4tec9?4enabled?$AA@ DB 'weapon.trig'
	DB	'gerbot.tec9.enabled', 00H			; `string'
CONST	ENDS
;	COMDAT ??_C@_0BB@HBJFKNCP@weapon?4tec9?4bone?$AA@
CONST	SEGMENT
??_C@_0BB@HBJFKNCP@weapon?4tec9?4bone?$AA@ DB 'weapon.tec9.bone', 00H ; `string'
CONST	ENDS
;	COMDAT ??_C@_0BD@JKBLEICL@weapon?4tec9?4smooth?$AA@
CONST	SEGMENT
??_C@_0BD@JKBLEICL@weapon?4tec9?4smooth?$AA@ DB 'weapon.tec9.smooth', 00H ; `string'
CONST	ENDS
;	COMDAT ??_C@_0BA@BEIJDMJN@weapon?4tec9?4fov?$AA@
CONST	SEGMENT
??_C@_0BA@BEIJDMJN@weapon?4tec9?4fov?$AA@ DB 'weapon.tec9.fov', 00H ; `string'
CONST	ENDS
;	COMDAT ??_C@_0BE@HJGECHHI@weapon?4tec9?4enabled?$AA@
CONST	SEGMENT
??_C@_0BE@HJGECHHI@weapon?4tec9?4enabled?$AA@ DB 'weapon.tec9.enabled', 00H ; `string'
CONST	ENDS
;	COMDAT ??_C@_0BP@NDKJKMIL@weapon?4triggerbot?4p250?4sleep?42?$AA@
CONST	SEGMENT
??_C@_0BP@NDKJKMIL@weapon?4triggerbot?4p250?4sleep?42?$AA@ DB 'weapon.tri'
	DB	'ggerbot.p250.sleep.2', 00H			; `string'
CONST	ENDS
;	COMDAT ??_C@_0BP@PIIEPPEI@weapon?4triggerbot?4p250?4sleep?41?$AA@
CONST	SEGMENT
??_C@_0BP@PIIEPPEI@weapon?4triggerbot?4p250?4sleep?41?$AA@ DB 'weapon.tri'
	DB	'ggerbot.p250.sleep.1', 00H			; `string'
CONST	ENDS
;	COMDAT ??_C@_0BP@FNLCGLNM@weapon?4triggerbot?4p250?4enabled?$AA@
CONST	SEGMENT
??_C@_0BP@FNLCGLNM@weapon?4triggerbot?4p250?4enabled?$AA@ DB 'weapon.trig'
	DB	'gerbot.p250.enabled', 00H			; `string'
CONST	ENDS
;	COMDAT ??_C@_0BB@GIJMJOHI@weapon?4p250?4bone?$AA@
CONST	SEGMENT
??_C@_0BB@GIJMJOHI@weapon?4p250?4bone?$AA@ DB 'weapon.p250.bone', 00H ; `string'
CONST	ENDS
;	COMDAT ??_C@_0BD@NADBPLKH@weapon?4p250?4smooth?$AA@
CONST	SEGMENT
??_C@_0BD@NADBPLKH@weapon?4p250?4smooth?$AA@ DB 'weapon.p250.smooth', 00H ; `string'
CONST	ENDS
;	COMDAT ??_C@_0BA@HBIMBKAL@weapon?4p250?4fov?$AA@
CONST	SEGMENT
??_C@_0BA@HBIMBKAL@weapon?4p250?4fov?$AA@ DB 'weapon.p250.fov', 00H ; `string'
CONST	ENDS
;	COMDAT ??_C@_0BE@JNCAMCMA@weapon?4p250?4enabled?$AA@
CONST	SEGMENT
??_C@_0BE@JNCAMCMA@weapon?4p250?4enabled?$AA@ DB 'weapon.p250.enabled', 00H ; `string'
CONST	ENDS
;	COMDAT ??_C@_0CA@JKPOLFAA@weapon?4triggerbot?4elite?4sleep?42?$AA@
CONST	SEGMENT
??_C@_0CA@JKPOLFAA@weapon?4triggerbot?4elite?4sleep?42?$AA@ DB 'weapon.tr'
	DB	'iggerbot.elite.sleep.2', 00H		; `string'
CONST	ENDS
;	COMDAT ??_C@_0CA@LBNDOGMD@weapon?4triggerbot?4elite?4sleep?41?$AA@
CONST	SEGMENT
??_C@_0CA@LBNDOGMD@weapon?4triggerbot?4elite?4sleep?41?$AA@ DB 'weapon.tr'
	DB	'iggerbot.elite.sleep.1', 00H		; `string'
CONST	ENDS
;	COMDAT ??_C@_0CA@BEOFHCFH@weapon?4triggerbot?4elite?4enabled?$AA@
CONST	SEGMENT
??_C@_0CA@BEOFHCFH@weapon?4triggerbot?4elite?4enabled?$AA@ DB 'weapon.tri'
	DB	'ggerbot.elite.enabled', 00H			; `string'
CONST	ENDS
;	COMDAT ??_C@_0BC@HFBOPNNE@weapon?4elite?4bone?$AA@
CONST	SEGMENT
??_C@_0BC@HFBOPNNE@weapon?4elite?4bone?$AA@ DB 'weapon.elite.bone', 00H ; `string'
CONST	ENDS
;	COMDAT ??_C@_0BE@GDICFCC@weapon?4elite?4smooth?$AA@
CONST	SEGMENT
??_C@_0BE@GDICFCC@weapon?4elite?4smooth?$AA@ DB 'weapon.elite.smooth', 00H ; `string'
CONST	ENDS
;	COMDAT ??_C@_0BB@EEPPNCBL@weapon?4elite?4fov?$AA@
CONST	SEGMENT
??_C@_0BB@EEPPNCBL@weapon?4elite?4fov?$AA@ DB 'weapon.elite.fov', 00H ; `string'
CONST	ENDS
;	COMDAT ??_C@_0BF@CELMLB@weapon?4elite?4enabled?$AA@
CONST	SEGMENT
??_C@_0BF@CELMLB@weapon?4elite?4enabled?$AA@ DB 'weapon.elite.enabled', 00H ; `string'
CONST	ENDS
;	COMDAT ??_C@_0CA@NKJDFLG@weapon?4triggerbot?4glock?4sleep?42?$AA@
CONST	SEGMENT
??_C@_0CA@NKJDFLG@weapon?4triggerbot?4glock?4sleep?42?$AA@ DB 'weapon.tri'
	DB	'ggerbot.glock.sleep.2', 00H			; `string'
CONST	ENDS
;	COMDAT ??_C@_0CA@CGIEGGHF@weapon?4triggerbot?4glock?4sleep?41?$AA@
CONST	SEGMENT
??_C@_0CA@CGIEGGHF@weapon?4triggerbot?4glock?4sleep?41?$AA@ DB 'weapon.tr'
	DB	'iggerbot.glock.sleep.1', 00H		; `string'
CONST	ENDS
;	COMDAT ??_C@_0CA@IDLCPCOB@weapon?4triggerbot?4glock?4enabled?$AA@
CONST	SEGMENT
??_C@_0CA@IDLCPCOB@weapon?4triggerbot?4glock?4enabled?$AA@ DB 'weapon.tri'
	DB	'ggerbot.glock.enabled', 00H			; `string'
CONST	ENDS
;	COMDAT ??_C@_0BC@HICJHOPA@weapon?4glock?4bone?$AA@
CONST	SEGMENT
??_C@_0BC@HICJHOPA@weapon?4glock?4bone?$AA@ DB 'weapon.glock.bone', 00H ; `string'
CONST	ENDS
;	COMDAT ??_C@_0BE@IDGBBLCJ@weapon?4glock?4smooth?$AA@
CONST	SEGMENT
??_C@_0BE@IDGBBLCJ@weapon?4glock?4smooth?$AA@ DB 'weapon.glock.smooth', 00H ; `string'
CONST	ENDS
;	COMDAT ??_C@_0BB@BOBGMIJB@weapon?4glock?4fov?$AA@
CONST	SEGMENT
??_C@_0BB@BOBGMIJB@weapon?4glock?4fov?$AA@ DB 'weapon.glock.fov', 00H ; `string'
CONST	ENDS
;	COMDAT ??_C@_0BF@JHHDDMAH@weapon?4glock?4enabled?$AA@
CONST	SEGMENT
??_C@_0BF@JHHDDMAH@weapon?4glock?4enabled?$AA@ DB 'weapon.glock.enabled', 00H ; `string'
CONST	ENDS
;	COMDAT ??_C@_0P@DDHPAHFC@cfg?4reload?4key?$AA@
CONST	SEGMENT
??_C@_0P@DDHPAHFC@cfg?4reload?4key?$AA@ DB 'cfg.reload.key', 00H ; `string'
CONST	ENDS
;	COMDAT ??_C@_0P@LHGBDINM@triggerbot?4key?$AA@
CONST	SEGMENT
??_C@_0P@LHGBDINM@triggerbot?4key?$AA@ DB 'triggerbot.key', 00H ; `string'
CONST	ENDS
;	COMDAT ??_C@_0P@PILJLKNI@aimbot?4end?4key?$AA@
CONST	SEGMENT
??_C@_0P@PILJLKNI@aimbot?4end?4key?$AA@ DB 'aimbot.end.key', 00H ; `string'
CONST	ENDS
;	COMDAT ??_C@_07PBMJFFMH@Horcrux?$AA@
CONST	SEGMENT
??_C@_07PBMJFFMH@Horcrux?$AA@ DB 'Horcrux', 00H		; `string'
CONST	ENDS
;	COMDAT ??_C@_0L@NIEILAKM@aimbot?4key?$AA@
CONST	SEGMENT
??_C@_0L@NIEILAKM@aimbot?4key?$AA@ DB 'aimbot.key', 00H	; `string'
CONST	ENDS
;	COMDAT ??_C@_0N@FHFKIPAC@?4?2Config?4cfg?$AA@
CONST	SEGMENT
??_C@_0N@FHFKIPAC@?4?2Config?4cfg?$AA@ DB '.\Config.cfg', 00H ; `string'
CONST	ENDS
;	COMDAT ??_C@_0BB@KMPIJMAG@seDebugPrivilege?$AA@
CONST	SEGMENT
??_C@_0BB@KMPIJMAG@seDebugPrivilege?$AA@ DB 'seDebugPrivilege', 00H ; `string'
CONST	ENDS
;	COMDAT ??_C@_00CNPNBAHC@?$AA@
CONST	SEGMENT
??_C@_00CNPNBAHC@?$AA@ DB 00H				; `string'
CONST	ENDS
PUBLIC	??$construct@PADAAPAD@?$allocator@D@std@@QAEXPAPADAAPAD@Z ; std::allocator<char>::construct<char *,char * &>
PUBLIC	??$destroy@PAD@?$allocator@D@std@@QAEXPAPAD@Z	; std::allocator<char>::destroy<char *>
PUBLIC	??$?8DD@std@@YA_NABV?$allocator@D@0@0@Z		; std::operator==<char,char>
PUBLIC	??4?$_Wrap_alloc@V?$allocator@D@std@@@std@@QAEAAU01@$$QAU01@@Z ; std::_Wrap_alloc<std::allocator<char> >::operator=
PUBLIC	??$construct@PADAAPAD@?$allocator_traits@V?$allocator@D@std@@@std@@SAXAAV?$allocator@D@1@PAPADAAPAD@Z ; std::allocator_traits<std::allocator<char> >::construct<char *,char * &>
PUBLIC	??$forward@AAPAD@std@@YAAAPADAAPAD@Z		; std::forward<char * &>
PUBLIC	??$destroy@PAD@?$allocator_traits@V?$allocator@D@std@@@std@@SAXAAV?$allocator@D@1@PAPAD@Z ; std::allocator_traits<std::allocator<char> >::destroy<char *>
PUBLIC	??$_Pocma@U?$_Wrap_alloc@V?$allocator@D@std@@@std@@@std@@YAXAAU?$_Wrap_alloc@V?$allocator@D@std@@@0@0U?$integral_constant@_N$00@0@@Z ; std::_Pocma<std::_Wrap_alloc<std::allocator<char> > >
PUBLIC	??$?8V?$allocator@D@std@@V01@@std@@YA_NABU?$_Wrap_alloc@V?$allocator@D@std@@@0@0@Z ; std::operator==<std::allocator<char>,std::allocator<char> >
PUBLIC	??$?8DU?$char_traits@D@std@@V?$allocator@D@1@@std@@YA_NABV?$basic_string@DU?$char_traits@D@std@@V?$allocator@D@2@@0@0@Z ; std::operator==<char,std::char_traits<char>,std::allocator<char> >
PUBLIC	?replace@?$basic_string@DU?$char_traits@D@std@@V?$allocator@D@2@@std@@QAEAAV12@IIABV12@II@Z ; std::basic_string<char,std::char_traits<char>,std::allocator<char> >::replace
PUBLIC	??D?$_String_const_iterator@V?$_String_val@U?$_Simple_types@D@std@@@std@@@std@@QBEABDXZ ; std::_String_const_iterator<std::_String_val<std::_Simple_types<char> > >::operator*
PUBLIC	?_Compat@?$_String_const_iterator@V?$_String_val@U?$_Simple_types@D@std@@@std@@@std@@QBEXABV12@@Z ; std::_String_const_iterator<std::_String_val<std::_Simple_types<char> > >::_Compat
PUBLIC	?replace@?$basic_string@DU?$char_traits@D@std@@V?$allocator@D@2@@std@@QAEAAV12@IIPBDI@Z ; std::basic_string<char,std::char_traits<char>,std::allocator<char> >::replace
PUBLIC	??D?$_String_iterator@V?$_String_val@U?$_Simple_types@D@std@@@std@@@std@@QBEAADXZ ; std::_String_iterator<std::_String_val<std::_Simple_types<char> > >::operator*
PUBLIC	??G?$_String_iterator@V?$_String_val@U?$_Simple_types@D@std@@@std@@@std@@QBEHABV?$_String_const_iterator@V?$_String_val@U?$_Simple_types@D@std@@@std@@@1@@Z ; std::_String_iterator<std::_String_val<std::_Simple_types<char> > >::operator-
PUBLIC	??G?$_String_const_iterator@V?$_String_val@U?$_Simple_types@D@std@@@std@@@std@@QBEHABV01@@Z ; std::_String_const_iterator<std::_String_val<std::_Simple_types<char> > >::operator-
PUBLIC	??8?$_String_const_iterator@V?$_String_val@U?$_Simple_types@D@std@@@std@@@std@@QBE_NABV01@@Z ; std::_String_const_iterator<std::_String_val<std::_Simple_types<char> > >::operator==
PUBLIC	??0_Bxty@?$_String_val@U?$_Simple_types@D@std@@@std@@QAE@XZ ; std::_String_val<std::_Simple_types<char> >::_Bxty::_Bxty
PUBLIC	??0?$allocator@D@std@@QAE@XZ			; std::allocator<char>::allocator<char>
PUBLIC	?replace@?$basic_string@DU?$char_traits@D@std@@V?$allocator@D@2@@std@@QAEAAV12@V?$_String_const_iterator@V?$_String_val@U?$_Simple_types@D@std@@@std@@@2@0V?$_String_iterator@V?$_String_val@U?$_Simple_types@D@std@@@std@@@2@1@Z ; std::basic_string<char,std::char_traits<char>,std::allocator<char> >::replace
PUBLIC	??0?$_Wrap_alloc@V?$allocator@D@std@@@std@@QAE@XZ ; std::_Wrap_alloc<std::allocator<char> >::_Wrap_alloc<std::allocator<char> >
PUBLIC	??0?$_String_val@U?$_Simple_types@D@std@@@std@@QAE@XZ ; std::_String_val<std::_Simple_types<char> >::_String_val<std::_Simple_types<char> >
PUBLIC	??$addressof@D@std@@YAPADAAD@Z			; std::addressof<char>
PUBLIC	??$construct@PADAAPAD@?$_Wrap_alloc@V?$allocator@D@std@@@std@@QAEXPAPADAAPAD@Z ; std::_Wrap_alloc<std::allocator<char> >::construct<char *,char * &>
PUBLIC	??$_Unfancy@D@std@@YAPADPAD@Z			; std::_Unfancy<char>
PUBLIC	??$destroy@PAD@?$_Wrap_alloc@V?$allocator@D@std@@@std@@QAEXPAPAD@Z ; std::_Wrap_alloc<std::allocator<char> >::destroy<char *>
PUBLIC	??$addressof@PAD@std@@YAPAPADAAPAD@Z		; std::addressof<char *>
PUBLIC	??$?0$$V@?$_Compressed_pair@U?$_Wrap_alloc@V?$allocator@D@std@@@std@@V?$_String_val@U?$_Simple_types@D@std@@@2@$00@std@@QAE@U_Zero_then_variadic_args_t@1@@Z ; std::_Compressed_pair<std::_Wrap_alloc<std::allocator<char> >,std::_String_val<std::_Simple_types<char> >,1>::_Compressed_pair<std::_Wrap_alloc<std::allocator<char> >,std::_String_val<std::_Simple_types<char> >,1><>
PUBLIC	??$_Pocma@U?$_Wrap_alloc@V?$allocator@D@std@@@std@@@std@@YAXAAU?$_Wrap_alloc@V?$allocator@D@std@@@0@0@Z ; std::_Pocma<std::_Wrap_alloc<std::allocator<char> > >
PUBLIC	??$move@AAU?$_Wrap_alloc@V?$allocator@D@std@@@std@@@std@@YA$$QAU?$_Wrap_alloc@V?$allocator@D@std@@@0@AAU10@@Z ; std::move<std::_Wrap_alloc<std::allocator<char> > &>
PUBLIC	??$forward@V?$basic_string@DU?$char_traits@D@std@@V?$allocator@D@2@@std@@@std@@YA$$QAV?$basic_string@DU?$char_traits@D@std@@V?$allocator@D@2@@0@AAV10@@Z ; std::forward<std::basic_string<char,std::char_traits<char>,std::allocator<char> > >
PUBLIC	??$assign@V?$_String_iterator@V?$_String_val@U?$_Simple_types@D@std@@@std@@@std@@@?$basic_string@DU?$char_traits@D@std@@V?$allocator@D@2@@std@@QAEAAV01@V?$_String_iterator@V?$_String_val@U?$_Simple_types@D@std@@@std@@@1@0@Z ; std::basic_string<char,std::char_traits<char>,std::allocator<char> >::assign<std::_String_iterator<std::_String_val<std::_Simple_types<char> > > >
PUBLIC	??$?9V?$allocator@D@std@@V01@@std@@YA_NABU?$_Wrap_alloc@V?$allocator@D@std@@@0@0@Z ; std::operator!=<std::allocator<char>,std::allocator<char> >
PUBLIC	??$?8DU?$char_traits@D@std@@V?$allocator@D@1@@std@@YA_NPBDABV?$basic_string@DU?$char_traits@D@std@@V?$allocator@D@2@@0@@Z ; std::operator==<char,std::char_traits<char>,std::allocator<char> >
PUBLIC	??$?9DU?$char_traits@D@std@@V?$allocator@D@1@@std@@YA_NABV?$basic_string@DU?$char_traits@D@std@@V?$allocator@D@2@@0@0@Z ; std::operator!=<char,std::char_traits<char>,std::allocator<char> >
PUBLIC	?max_size@?$allocator@D@std@@QBEIXZ		; std::allocator<char>::max_size
PUBLIC	?allocate@?$allocator@D@std@@QAEPADI@Z		; std::allocator<char>::allocate
PUBLIC	?max_size@?$allocator_traits@V?$allocator@D@std@@@std@@SAIABV?$allocator@D@2@@Z ; std::allocator_traits<std::allocator<char> >::max_size
PUBLIC	?allocate@?$_Wrap_alloc@V?$allocator@D@std@@@std@@QAEPADI@Z ; std::_Wrap_alloc<std::allocator<char> >::allocate
PUBLIC	?max_size@?$_Wrap_alloc@V?$allocator@D@std@@@std@@QBEIU_Nil@2@@Z ; std::_Wrap_alloc<std::allocator<char> >::max_size
PUBLIC	?deallocate@?$allocator@D@std@@QAEXPADI@Z	; std::allocator<char>::deallocate
PUBLIC	?max_size@?$basic_string@DU?$char_traits@D@std@@V?$allocator@D@2@@std@@QBEIXZ ; std::basic_string<char,std::char_traits<char>,std::allocator<char> >::max_size
PUBLIC	?_Copy@?$basic_string@DU?$char_traits@D@std@@V?$allocator@D@2@@std@@QAEXII@Z ; std::basic_string<char,std::char_traits<char>,std::allocator<char> >::_Copy
PUBLIC	?_Xran@?$basic_string@DU?$char_traits@D@std@@V?$allocator@D@2@@std@@QBEXXZ ; std::basic_string<char,std::char_traits<char>,std::allocator<char> >::_Xran
PUBLIC	??0?$_String_const_iterator@V?$_String_val@U?$_Simple_types@D@std@@@std@@@std@@QAE@PBDPBU_Container_base0@1@@Z ; std::_String_const_iterator<std::_String_val<std::_Simple_types<char> > >::_String_const_iterator<std::_String_val<std::_Simple_types<char> > >
PUBLIC	?_Get_second@?$_Compressed_pair@U?$_Wrap_alloc@V?$allocator@D@std@@@std@@V?$_String_val@U?$_Simple_types@D@std@@@2@$00@std@@QAEAAV?$_String_val@U?$_Simple_types@D@std@@@2@XZ ; std::_Compressed_pair<std::_Wrap_alloc<std::allocator<char> >,std::_String_val<std::_Simple_types<char> >,1>::_Get_second
PUBLIC	?_Get_second@?$_Compressed_pair@U?$_Wrap_alloc@V?$allocator@D@std@@@std@@V?$_String_val@U?$_Simple_types@D@std@@@2@$00@std@@QBEABV?$_String_val@U?$_Simple_types@D@std@@@2@XZ ; std::_Compressed_pair<std::_Wrap_alloc<std::allocator<char> >,std::_String_val<std::_Simple_types<char> >,1>::_Get_second
PUBLIC	?pointer_to@?$pointer_traits@PAD@std@@SAPADAAD@Z ; std::pointer_traits<char *>::pointer_to
PUBLIC	?erase@?$basic_string@DU?$char_traits@D@std@@V?$allocator@D@2@@std@@QAEAAV12@I@Z ; std::basic_string<char,std::char_traits<char>,std::allocator<char> >::erase
PUBLIC	?erase@?$basic_string@DU?$char_traits@D@std@@V?$allocator@D@2@@std@@QAEAAV12@II@Z ; std::basic_string<char,std::char_traits<char>,std::allocator<char> >::erase
PUBLIC	?_Clamp_suffix_size@?$basic_string@DU?$char_traits@D@std@@V?$allocator@D@2@@std@@QBEIII@Z ; std::basic_string<char,std::char_traits<char>,std::allocator<char> >::_Clamp_suffix_size
PUBLIC	?_Eos@?$basic_string@DU?$char_traits@D@std@@V?$allocator@D@2@@std@@QAEXI@Z ; std::basic_string<char,std::char_traits<char>,std::allocator<char> >::_Eos
PUBLIC	?_Grow@?$basic_string@DU?$char_traits@D@std@@V?$allocator@D@2@@std@@QAE_NI_N@Z ; std::basic_string<char,std::char_traits<char>,std::allocator<char> >::_Grow
PUBLIC	?_Inside@?$basic_string@DU?$char_traits@D@std@@V?$allocator@D@2@@std@@QAE_NPBD@Z ; std::basic_string<char,std::char_traits<char>,std::allocator<char> >::_Inside
PUBLIC	?_Xlen@?$basic_string@DU?$char_traits@D@std@@V?$allocator@D@2@@std@@QBEXXZ ; std::basic_string<char,std::char_traits<char>,std::allocator<char> >::_Xlen
PUBLIC	?_Check_offset@?$basic_string@DU?$char_traits@D@std@@V?$allocator@D@2@@std@@QBEXI@Z ; std::basic_string<char,std::char_traits<char>,std::allocator<char> >::_Check_offset
PUBLIC	?_Get_data@?$_String_alloc@U?$_String_base_types@DV?$allocator@D@std@@@std@@@std@@QAEAAV?$_String_val@U?$_Simple_types@D@std@@@2@XZ ; std::_String_alloc<std::_String_base_types<char,std::allocator<char> > >::_Get_data
PUBLIC	?_Get_data@?$_String_alloc@U?$_String_base_types@DV?$allocator@D@std@@@std@@@std@@QBEABV?$_String_val@U?$_Simple_types@D@std@@@2@XZ ; std::_String_alloc<std::_String_base_types<char,std::allocator<char> > >::_Get_data
PUBLIC	?_Bx@?$_String_alloc@U?$_String_base_types@DV?$allocator@D@std@@@std@@@std@@QAEAAT_Bxty@?$_String_val@U?$_Simple_types@D@std@@@2@XZ ; std::_String_alloc<std::_String_base_types<char,std::allocator<char> > >::_Bx
PUBLIC	?_Mysize@?$_String_alloc@U?$_String_base_types@DV?$allocator@D@std@@@std@@@std@@QAEAAIXZ ; std::_String_alloc<std::_String_base_types<char,std::allocator<char> > >::_Mysize
PUBLIC	?_Myres@?$_String_alloc@U?$_String_base_types@DV?$allocator@D@std@@@std@@@std@@QAEAAIXZ ; std::_String_alloc<std::_String_base_types<char,std::allocator<char> > >::_Myres
PUBLIC	?address@?$_Wrap_alloc@V?$allocator@D@std@@@std@@QBEPADAAD@Z ; std::_Wrap_alloc<std::allocator<char> >::address
PUBLIC	?deallocate@?$_Wrap_alloc@V?$allocator@D@std@@@std@@QAEXPADI@Z ; std::_Wrap_alloc<std::allocator<char> >::deallocate
PUBLIC	?_Myptr@?$_String_val@U?$_Simple_types@D@std@@@std@@QAEPADXZ ; std::_String_val<std::_Simple_types<char> >::_Myptr
PUBLIC	?_Myptr@?$_String_val@U?$_Simple_types@D@std@@@std@@QBEPBDXZ ; std::_String_val<std::_Simple_types<char> >::_Myptr
PUBLIC	??0?$_String_iterator@V?$_String_val@U?$_Simple_types@D@std@@@std@@@std@@QAE@PADPBU_Container_base0@1@@Z ; std::_String_iterator<std::_String_val<std::_Simple_types<char> > >::_String_iterator<std::_String_val<std::_Simple_types<char> > >
PUBLIC	?_Get_first@?$_Compressed_pair@U?$_Wrap_alloc@V?$allocator@D@std@@@std@@V?$_String_val@U?$_Simple_types@D@std@@@2@$00@std@@QAEAAU?$_Wrap_alloc@V?$allocator@D@std@@@2@XZ ; std::_Compressed_pair<std::_Wrap_alloc<std::allocator<char> >,std::_String_val<std::_Simple_types<char> >,1>::_Get_first
PUBLIC	?_Get_first@?$_Compressed_pair@U?$_Wrap_alloc@V?$allocator@D@std@@@std@@V?$_String_val@U?$_Simple_types@D@std@@@2@$00@std@@QBEABU?$_Wrap_alloc@V?$allocator@D@std@@@2@XZ ; std::_Compressed_pair<std::_Wrap_alloc<std::allocator<char> >,std::_String_val<std::_Simple_types<char> >,1>::_Get_first
PUBLIC	?_Assign_rv@?$basic_string@DU?$char_traits@D@std@@V?$allocator@D@2@@std@@QAEX$$QAV12@@Z ; std::basic_string<char,std::char_traits<char>,std::allocator<char> >::_Assign_rv
PUBLIC	?assign@?$basic_string@DU?$char_traits@D@std@@V?$allocator@D@2@@std@@QAEAAV12@ABV12@II@Z ; std::basic_string<char,std::char_traits<char>,std::allocator<char> >::assign
PUBLIC	?assign@?$basic_string@DU?$char_traits@D@std@@V?$allocator@D@2@@std@@QAEAAV12@PBDI@Z ; std::basic_string<char,std::char_traits<char>,std::allocator<char> >::assign
PUBLIC	?assign@?$basic_string@DU?$char_traits@D@std@@V?$allocator@D@2@@std@@QAEAAV12@PBD@Z ; std::basic_string<char,std::char_traits<char>,std::allocator<char> >::assign
PUBLIC	?begin@?$basic_string@DU?$char_traits@D@std@@V?$allocator@D@2@@std@@QAE?AV?$_String_iterator@V?$_String_val@U?$_Simple_types@D@std@@@std@@@2@XZ ; std::basic_string<char,std::char_traits<char>,std::allocator<char> >::begin
PUBLIC	?end@?$basic_string@DU?$char_traits@D@std@@V?$allocator@D@2@@std@@QAE?AV?$_String_iterator@V?$_String_val@U?$_Simple_types@D@std@@@std@@@2@XZ ; std::basic_string<char,std::char_traits<char>,std::allocator<char> >::end
PUBLIC	?_Traits_compare@?$basic_string@DU?$char_traits@D@std@@V?$allocator@D@2@@std@@SAHQBDI0I@Z ; std::basic_string<char,std::char_traits<char>,std::allocator<char> >::_Traits_compare
PUBLIC	?_Tidy@?$basic_string@DU?$char_traits@D@std@@V?$allocator@D@2@@std@@QAEX_NI@Z ; std::basic_string<char,std::char_traits<char>,std::allocator<char> >::_Tidy
PUBLIC	?_Myptr@?$_String_alloc@U?$_String_base_types@DV?$allocator@D@std@@@std@@@std@@QAEPADXZ ; std::_String_alloc<std::_String_base_types<char,std::allocator<char> > >::_Myptr
PUBLIC	?_Myptr@?$_String_alloc@U?$_String_base_types@DV?$allocator@D@std@@@std@@@std@@QBEPBDXZ ; std::_String_alloc<std::_String_base_types<char,std::allocator<char> > >::_Myptr
PUBLIC	??0?$_String_alloc@U?$_String_base_types@DV?$allocator@D@std@@@std@@@std@@QAE@XZ ; std::_String_alloc<std::_String_base_types<char,std::allocator<char> > >::_String_alloc<std::_String_base_types<char,std::allocator<char> > >
PUBLIC	?_Move_alloc@?$_String_alloc@U?$_String_base_types@DV?$allocator@D@std@@@std@@@std@@QAEXAAU?$_Wrap_alloc@V?$allocator@D@std@@@2@@Z ; std::_String_alloc<std::_String_base_types<char,std::allocator<char> > >::_Move_alloc
PUBLIC	?_Getal@?$_String_alloc@U?$_String_base_types@DV?$allocator@D@std@@@std@@@std@@QAEAAU?$_Wrap_alloc@V?$allocator@D@std@@@2@XZ ; std::_String_alloc<std::_String_base_types<char,std::allocator<char> > >::_Getal
PUBLIC	?_Getal@?$_String_alloc@U?$_String_base_types@DV?$allocator@D@std@@@std@@@std@@QBEABU?$_Wrap_alloc@V?$allocator@D@std@@@2@XZ ; std::_String_alloc<std::_String_base_types<char,std::allocator<char> > >::_Getal
PUBLIC	?_Mysize@?$_String_alloc@U?$_String_base_types@DV?$allocator@D@std@@@std@@@std@@QBEABIXZ ; std::_String_alloc<std::_String_base_types<char,std::allocator<char> > >::_Mysize
PUBLIC	??1_Bxty@?$_String_val@U?$_Simple_types@D@std@@@std@@QAE@XZ ; std::_String_val<std::_Simple_types<char> >::_Bxty::~_Bxty
PUBLIC	??1?$_String_val@U?$_Simple_types@D@std@@@std@@QAE@XZ ; std::_String_val<std::_Simple_types<char> >::~_String_val<std::_Simple_types<char> >
PUBLIC	??1?$_Compressed_pair@U?$_Wrap_alloc@V?$allocator@D@std@@@std@@V?$_String_val@U?$_Simple_types@D@std@@@2@$00@std@@QAE@XZ ; std::_Compressed_pair<std::_Wrap_alloc<std::allocator<char> >,std::_String_val<std::_Simple_types<char> >,1>::~_Compressed_pair<std::_Wrap_alloc<std::allocator<char> >,std::_String_val<std::_Simple_types<char> >,1>
PUBLIC	??1?$_String_alloc@U?$_String_base_types@DV?$allocator@D@std@@@std@@@std@@QAE@XZ ; std::_String_alloc<std::_String_base_types<char,std::allocator<char> > >::~_String_alloc<std::_String_base_types<char,std::allocator<char> > >
PUBLIC	??0?$basic_string@DU?$char_traits@D@std@@V?$allocator@D@2@@std@@QAE@XZ ; std::basic_string<char,std::char_traits<char>,std::allocator<char> >::basic_string<char,std::char_traits<char>,std::allocator<char> >
PUBLIC	??0?$basic_string@DU?$char_traits@D@std@@V?$allocator@D@2@@std@@QAE@PBD@Z ; std::basic_string<char,std::char_traits<char>,std::allocator<char> >::basic_string<char,std::char_traits<char>,std::allocator<char> >
PUBLIC	??4?$basic_string@DU?$char_traits@D@std@@V?$allocator@D@2@@std@@QAEAAV01@$$QAV01@@Z ; std::basic_string<char,std::char_traits<char>,std::allocator<char> >::operator=
PUBLIC	??1?$basic_string@DU?$char_traits@D@std@@V?$allocator@D@2@@std@@QAE@XZ ; std::basic_string<char,std::char_traits<char>,std::allocator<char> >::~basic_string<char,std::char_traits<char>,std::allocator<char> >
PUBLIC	?compare@?$basic_string@DU?$char_traits@D@std@@V?$allocator@D@2@@std@@QBEHABV12@@Z ; std::basic_string<char,std::char_traits<char>,std::allocator<char> >::compare
PUBLIC	?compare@?$basic_string@DU?$char_traits@D@std@@V?$allocator@D@2@@std@@QBEHPBD@Z ; std::basic_string<char,std::char_traits<char>,std::allocator<char> >::compare
PUBLIC	_WinMain@16
PUBLIC	?Info@@YA_NXZ					; Info
PUBLIC	?GetWeaponInfos@@YA_NXZ				; GetWeaponInfos
PUBLIC	?Triggerbot@@YAKPAX@Z				; Triggerbot
PUBLIC	?Aimbot@@YAKPAX@Z				; Aimbot
PUBLIC	?DropTarget@@YAXXZ				; DropTarget
PUBLIC	?ReadStructure@C_BasePlayer@@QAEXH@Z		; C_BasePlayer::ReadStructure
PUBLIC	?Clear@C_BasePlayer@@QAEXXZ			; C_BasePlayer::Clear
PUBLIC	?ReadStructure@C_LocalBase@@QAEXXZ		; C_LocalBase::ReadStructure
PUBLIC	?Clear@C_LocalBase@@QAEXXZ			; C_LocalBase::Clear
PUBLIC	?InitializeSettings@@YA_NXZ			; InitializeSettings
PUBLIC	??1C_GlobalVars@@QAE@XZ				; C_GlobalVars::~C_GlobalVars
PUBLIC	?__autoclassinit2@C_GlobalVars@@QAEXI@Z		; C_GlobalVars::__autoclassinit2
PUBLIC	??0C_GlobalVars@@QAE@XZ				; C_GlobalVars::C_GlobalVars
PUBLIC	?IsNonRcs@C_Nospread@@QAE_NH@Z			; C_Nospread::IsNonRcs
PUBLIC	?IsBadWeapon@C_Nospread@@QAE_NH@Z		; C_Nospread::IsBadWeapon
PUBLIC	?NormalizeAngles@C_Math@@QAEXPAM@Z		; C_Math::NormalizeAngles
PUBLIC	?VectorLength@C_Math@@QAEMPAM@Z			; C_Math::VectorLength
PUBLIC	?ATAN2@C_Math@@QAEMMM@Z				; C_Math::ATAN2
PUBLIC	?GetPrivateProfileFloat@C_Module@@QAEMPBD0M0@Z	; C_Module::GetPrivateProfileFloat
PUBLIC	?SetDebugPrivilege@C_Module@@QAE_NXZ		; C_Module::SetDebugPrivilege
PUBLIC	?GetProcID@C_Module@@QAEHV?$basic_string@DU?$char_traits@D@std@@V?$allocator@D@2@@std@@@Z ; C_Module::GetProcID
PUBLIC	?GetModule@C_Module@@QAEPAEPAXV?$basic_string@DU?$char_traits@D@std@@V?$allocator@D@2@@std@@@Z ; C_Module::GetModule
PUBLIC	?_Deallocate@std@@YAXPAXII@Z			; std::_Deallocate
PUBLIC	?_Allocate@std@@YAPAXII_N@Z			; std::_Allocate
PUBLIC	?_Adopt@_Iterator_base0@std@@QAEXPBX@Z		; std::_Iterator_base0::_Adopt
PUBLIC	?assign@?$char_traits@D@std@@SAXAADABD@Z	; std::char_traits<char>::assign
PUBLIC	?move@?$char_traits@D@std@@SAPADPADPBDI@Z	; std::char_traits<char>::move
PUBLIC	?copy@?$char_traits@D@std@@SAPADPADPBDI@Z	; std::char_traits<char>::copy
PUBLIC	?length@?$char_traits@D@std@@SAIPBD@Z		; std::char_traits<char>::length
PUBLIC	?compare@?$char_traits@D@std@@SAHPBD0I@Z	; std::char_traits<char>::compare
PUBLIC	??2@YAPAXIPAX@Z					; operator new
PUBLIC	?sqrt@@YAMM@Z					; sqrt
PUBLIC	?atan@@YAMM@Z					; atan
PUBLIC	?asin@@YAMM@Z					; asin
PUBLIC	_sqrtf
PUBLIC	_atanf
PUBLIC	_asinf
PUBLIC	?g_Vars@@3VC_GlobalVars@@A			; g_Vars
PUBLIC	__real@00000000
PUBLIC	__real@3fc90fdb
PUBLIC	__real@40000000
PUBLIC	__real@400921fb54442d18
PUBLIC	__real@4066800000000000
PUBLIC	__real@42820000
PUBLIC	__real@43340000
PUBLIC	__real@43b40000
PUBLIC	__real@bff0000000000000
PUBLIC	__real@c0000000
PUBLIC	__real@c3340000
PUBLIC	__xmm@80000000800000008000000080000000
EXTRN	__CxxThrowException@8:PROC
EXTRN	___CxxFrameHandler3:PROC
EXTRN	__libm_sse2_asin_precise:PROC
EXTRN	__libm_sse2_atan_precise:PROC
EXTRN	__libm_sse2_sqrt_precise:PROC
EXTRN	_memcpy:PROC
EXTRN	_memset:PROC
EXTRN	___security_cookie:DWORD
EXTRN	__fltused:DWORD
	ALIGN	4

?g_Vars@@3VC_GlobalVars@@A DB 024cH DUP (?)		; g_Vars
_BSS	ENDS
CRT$XCU	SEGMENT
?g_Vars$initializer$@@3P6AXXZA DD FLAT:??__Eg_Vars@@YAXXZ ; g_Vars$initializer$
CRT$XCU	ENDS
;	COMDAT __xmm@80000000800000008000000080000000
CONST	SEGMENT
__xmm@80000000800000008000000080000000 DB 00H, 00H, 00H, 080H, 00H, 00H, 00H
	DB	080H, 00H, 00H, 00H, 080H, 00H, 00H, 00H, 080H
CONST	ENDS
;	COMDAT __real@c3340000
CONST	SEGMENT
__real@c3340000 DD 0c3340000r			; -180
CONST	ENDS
;	COMDAT __real@c0000000
CONST	SEGMENT
__real@c0000000 DD 0c0000000r			; -2
CONST	ENDS
;	COMDAT __real@bff0000000000000
CONST	SEGMENT
__real@bff0000000000000 DQ 0bff0000000000000r	; -1
CONST	ENDS
;	COMDAT __real@43b40000
CONST	SEGMENT
__real@43b40000 DD 043b40000r			; 360
CONST	ENDS
;	COMDAT __real@43340000
CONST	SEGMENT
__real@43340000 DD 043340000r			; 180
CONST	ENDS
;	COMDAT __real@42820000
CONST	SEGMENT
__real@42820000 DD 042820000r			; 65
CONST	ENDS
;	COMDAT __real@4066800000000000
CONST	SEGMENT
__real@4066800000000000 DQ 04066800000000000r	; 180
CONST	ENDS
;	COMDAT __real@400921fb54442d18
CONST	SEGMENT
__real@400921fb54442d18 DQ 0400921fb54442d18r	; 3.14159
CONST	ENDS
;	COMDAT __real@40000000
CONST	SEGMENT
__real@40000000 DD 040000000r			; 2
CONST	ENDS
;	COMDAT __real@3fc90fdb
CONST	SEGMENT
__real@3fc90fdb DD 03fc90fdbr			; 1.5708
CONST	ENDS
;	COMDAT __real@00000000
CONST	SEGMENT
__real@00000000 DD 000000000r			; 0
CONST	ENDS
;	COMDAT xdata$x
xdata$x	SEGMENT
__ehfuncinfo$?GetModule@C_Module@@QAEPAEPAXV?$basic_string@DU?$char_traits@D@std@@V?$allocator@D@2@@std@@@Z DQ 00000000219930522r ; 4.45598e-314
	DD	FLAT:__unwindtable$?GetModule@C_Module@@QAEPAEPAXV?$basic_string@DU?$char_traits@D@std@@V?$allocator@D@2@@std@@@Z
	DQ	00000000000000000r		; 0
	DQ	00000000000000000r		; 0
	DQ	00000000100000000r		; 2.122e-314
__unwindtable$?GetModule@C_Module@@QAEPAEPAXV?$basic_string@DU?$char_traits@D@std@@V?$allocator@D@2@@std@@@Z DD 0ffffffffH
	DD	FLAT:__unwindfunclet$?GetModule@C_Module@@QAEPAEPAXV?$basic_string@DU?$char_traits@D@std@@V?$allocator@D@2@@std@@@Z$0
	DD	00H
	DD	FLAT:__unwindfunclet$?GetModule@C_Module@@QAEPAEPAXV?$basic_string@DU?$char_traits@D@std@@V?$allocator@D@2@@std@@@Z$1
xdata$x	ENDS
;	COMDAT xdata$x
xdata$x	SEGMENT
__ehfuncinfo$??4?$basic_string@DU?$char_traits@D@std@@V?$allocator@D@2@@std@@QAEAAV01@$$QAV01@@Z DQ 00000000019930522r ; 2.11987e-315
	DQ	00000000000000000r		; 0
	DQ	00000000000000000r		; 0
	DQ	00000000000000000r		; 0
	DD	05H
xdata$x	ENDS
;	COMDAT xdata$x
xdata$x	SEGMENT
__ehfuncinfo$?_Copy@?$basic_string@DU?$char_traits@D@std@@V?$allocator@D@2@@std@@QAEXII@Z DQ 00000000419930522r ; 8.69997e-314
	DD	FLAT:__unwindtable$?_Copy@?$basic_string@DU?$char_traits@D@std@@V?$allocator@D@2@@std@@QAEXII@Z
	DD	02H
	DD	FLAT:__tryblocktable$?_Copy@?$basic_string@DU?$char_traits@D@std@@V?$allocator@D@2@@std@@QAEXII@Z
	DQ	00000000000000000r		; 0
	DQ	00000000100000000r		; 2.122e-314
__unwindtable$?_Copy@?$basic_string@DU?$char_traits@D@std@@V?$allocator@D@2@@std@@QAEXII@Z DQ 000000000ffffffffr ; 2.122e-314
	DQ	000000000ffffffffr		; 2.122e-314
	DQ	00000000000000001r		; 4.94066e-324
	DQ	00000000000000001r		; 4.94066e-324
__tryblocktable$?_Copy@?$basic_string@DU?$char_traits@D@std@@V?$allocator@D@2@@std@@QAEXII@Z DQ 00000000200000002r ; 4.24399e-314
	DQ	00000000100000003r		; 2.122e-314
	DD	FLAT:__catchsym$?_Copy@?$basic_string@DU?$char_traits@D@std@@V?$allocator@D@2@@std@@QAEXII@Z$84
	DQ	00000000000000000r		; 0
	DQ	00000000100000003r		; 2.122e-314
	DD	FLAT:__catchsym$?_Copy@?$basic_string@DU?$char_traits@D@std@@V?$allocator@D@2@@std@@QAEXII@Z$85
__catchsym$?_Copy@?$basic_string@DU?$char_traits@D@std@@V?$allocator@D@2@@std@@QAEXII@Z$84 DQ 00000000000000040r ; 3.16202e-322
	DD	00H
	DD	FLAT:__catch$?_Copy@?$basic_string@DU?$char_traits@D@std@@V?$allocator@D@2@@std@@QAEXII@Z$1
__catchsym$?_Copy@?$basic_string@DU?$char_traits@D@std@@V?$allocator@D@2@@std@@QAEXII@Z$85 DQ 00000000000000040r ; 3.16202e-322
	DD	00H
	DD	FLAT:__catch$?_Copy@?$basic_string@DU?$char_traits@D@std@@V?$allocator@D@2@@std@@QAEXII@Z$0
xdata$x	ENDS
; Function compile flags: /Ogtp
; File d:\nevoie personala\engine hack\ankfest\ankfest\ankfest.cpp
;	COMDAT ?ReadStructure@C_LocalBase@@QAEXXZ
_TEXT	SEGMENT
?ReadStructure@C_LocalBase@@QAEXXZ PROC			; C_LocalBase::ReadStructure, COMDAT
; _this$ = ecx

; 72   : 	{

	push	ebx

; 73   : 		this->Clear();
; 74   : 
; 75   : 		ReadProcessMemory(g_Vars.hProcess, g_Vars.dwClient + c_dwLocalBaseEntity, &LocalBase, sizeof(LocalBase), NULL);

	mov	ebx, DWORD PTR __imp__ReadProcessMemory@20
	push	esi
	push	edi
	mov	edi, ecx
	push	0

; 67   : 		this->AngBase = 0x0;

	lea	esi, DWORD PTR [edi+4]
	mov	DWORD PTR [esi], 0
	mov	DWORD PTR [edi], 0

; 68   : 		this->CWeaponBase = 0x0;

	mov	DWORD PTR [edi+8], 0

; 73   : 		this->Clear();
; 74   : 
; 75   : 		ReadProcessMemory(g_Vars.hProcess, g_Vars.dwClient + c_dwLocalBaseEntity, &LocalBase, sizeof(LocalBase), NULL);

	mov	eax, DWORD PTR ?g_Vars@@3VC_GlobalVars@@A+36
	push	4
	push	edi
	add	eax, 13798172				; 00d28b1cH
	push	eax
	push	DWORD PTR ?g_Vars@@3VC_GlobalVars@@A+40
	call	ebx

; 76   : 		ReadProcessMemory(g_Vars.hProcess, g_Vars.dwEngine + ViewAng, &AngBase, sizeof(AngBase), NULL);

	mov	eax, DWORD PTR ?g_Vars@@3VC_GlobalVars@@A+32
	push	0
	push	4
	push	esi
	add	eax, 5803420				; 00588d9cH
	push	eax
	push	DWORD PTR ?g_Vars@@3VC_GlobalVars@@A+40
	call	ebx

; 77   : 		ReadProcessMemory(g_Vars.hProcess, AngBase + ViewAngOff, &flAngle, sizeof(flAngle), NULL);

	push	0
	push	12					; 0000000cH
	lea	eax, DWORD PTR [edi+12]
	push	eax
	mov	eax, DWORD PTR [esi]
	add	eax, 19848				; 00004d88H
	push	eax
	push	DWORD PTR ?g_Vars@@3VC_GlobalVars@@A+40
	call	ebx

; 78   : 		ReadProcessMemory(g_Vars.hProcess, LocalBase + hitboxpos, &i1, sizeof(i1), NULL);

	push	0
	push	12					; 0000000cH
	lea	eax, DWORD PTR [edi+24]
	push	eax
	mov	eax, DWORD PTR [edi]
	add	eax, 312				; 00000138H
	push	eax
	push	DWORD PTR ?g_Vars@@3VC_GlobalVars@@A+40
	call	ebx

; 79   : 		ReadProcessMemory(g_Vars.hProcess, LocalBase + MyTeamAD, &MyTeam, sizeof(MyTeam), NULL);

	push	0
	push	4
	lea	eax, DWORD PTR [edi+72]
	push	eax
	mov	eax, DWORD PTR [edi]
	add	eax, 244				; 000000f4H
	push	eax
	push	DWORD PTR ?g_Vars@@3VC_GlobalVars@@A+40
	call	ebx

; 80   : 		ReadProcessMemory(g_Vars.hProcess, AngBase + ViewAngOff, &MeFov, sizeof(MeFov), NULL);

	push	0
	push	12					; 0000000cH
	lea	eax, DWORD PTR [edi+36]
	push	eax
	mov	eax, DWORD PTR [esi]
	add	eax, 19848				; 00004d88H
	push	eax
	push	DWORD PTR ?g_Vars@@3VC_GlobalVars@@A+40
	call	ebx

; 81   : 		ReadProcessMemory(g_Vars.hProcess, LocalBase + Recoil_Offset + m_local, &recoil, sizeof(recoil), NULL);

	mov	eax, DWORD PTR [edi]
	lea	esi, DWORD PTR [edi+48]
	push	0
	push	12					; 0000000cH
	push	esi
	add	eax, 12332				; 0000302cH
	push	eax
	push	DWORD PTR ?g_Vars@@3VC_GlobalVars@@A+40
	call	ebx

; 82   : 		recoil[0] *= 2;

	movss	xmm0, DWORD PTR [esi]

; 83   : 		recoil[1] *= 2;
; 84   : 		ReadProcessMemory(g_Vars.hProcess, g_Vars.dwEngine + c_dwEnginePosition, &vPosition, sizeof(vPosition), 0);

	lea	eax, DWORD PTR [edi+60]
	addss	xmm0, xmm0
	push	0
	push	12					; 0000000cH
	push	eax
	movss	DWORD PTR [esi], xmm0
	movss	xmm0, DWORD PTR [edi+52]
	addss	xmm0, xmm0
	movss	DWORD PTR [edi+52], xmm0
	mov	eax, DWORD PTR ?g_Vars@@3VC_GlobalVars@@A+32
	add	eax, 5803420				; 00588d9cH
	push	eax
	push	DWORD PTR ?g_Vars@@3VC_GlobalVars@@A+40
	call	ebx

; 85   : 		ReadProcessMemory(g_Vars.hProcess, LocalBase + c_dwWeaponHandle, &m_WeaponHandle, 4, 0);

	mov	eax, DWORD PTR [edi]
	lea	esi, DWORD PTR [edi+76]
	push	0
	push	4
	push	esi
	add	eax, 12024				; 00002ef8H
	push	eax
	push	DWORD PTR ?g_Vars@@3VC_GlobalVars@@A+40
	call	ebx

; 86   : 		m_WeaponIDFirst = m_WeaponHandle & 0xFFF;

	mov	ecx, DWORD PTR [esi]

; 87   : 		ReadProcessMemory(g_Vars.hProcess, g_Vars.dwClient + c_dwBaseEntity + ((0x10 * m_WeaponIDFirst) - 0x10), &CWeaponBase, sizeof(CWeaponBase), 0);

	lea	esi, DWORD PTR [edi+8]
	and	ecx, 4095				; 00000fffH
	mov	DWORD PTR [edi+80], ecx
	mov	eax, DWORD PTR ?g_Vars@@3VC_GlobalVars@@A+36
	push	0
	push	4
	shl	ecx, 4
	add	eax, 80987772				; 04d3c67cH
	push	esi
	add	eax, ecx
	push	eax
	push	DWORD PTR ?g_Vars@@3VC_GlobalVars@@A+40
	call	ebx

; 88   : 		ReadProcessMemory(g_Vars.hProcess, CWeaponBase + c_dwWeaponID, &g_Vars.m_iWeaponID, 4, NULL);

	mov	eax, DWORD PTR [esi]
	push	0
	push	4
	push	OFFSET ?g_Vars@@3VC_GlobalVars@@A+236
	add	eax, 12202				; 00002faaH
	push	eax
	push	DWORD PTR ?g_Vars@@3VC_GlobalVars@@A+40
	call	ebx
	pop	edi
	pop	esi
	pop	ebx

; 89   : 
; 90   : 		//cout << g_Vars.m_iWeaponID << endl;
; 91   : 	}

	ret	0
?ReadStructure@C_LocalBase@@QAEXXZ ENDP			; C_LocalBase::ReadStructure
_TEXT	ENDS
; Function compile flags: /Ogtp
; File d:\nevoie personala\engine hack\ankfest\ankfest\ankfest.cpp
;	COMDAT ?ReadStructure@C_BasePlayer@@QAEXH@Z
_TEXT	SEGMENT
_this$1$ = -4						; size = 4
_i$ = 8							; size = 4
?ReadStructure@C_BasePlayer@@QAEXH@Z PROC		; C_BasePlayer::ReadStructure, COMDAT
; _this$ = ecx

; 119  : 	{

	push	ebp
	mov	ebp, esp
	push	ecx
	push	ebx
	push	esi
	push	edi

; 109  : 		this->dw_BasePointer = 0x0;

	mov	DWORD PTR [ecx], 0

; 110  : 		this->dw_BoneMatrix = 0x0;
; 111  : 		this->hp = 0;

	lea	esi, DWORD PTR [ecx+8]
	mov	DWORD PTR [ecx+4], 0

; 112  : 		this->Team = 0;

	lea	edi, DWORD PTR [ecx+12]

; 120  : 		this->Clear();
; 121  : 		ReadProcessMemory(g_Vars.hProcess, g_Vars.dwClient + c_dwBaseEntity + ((i - 1) * 16), &dw_BasePointer, sizeof(dw_BasePointer), NULL);

	push	0

; 111  : 		this->hp = 0;

	mov	DWORD PTR [esi], 0

; 113  : 		this->you[0] = 0;

	lea	ebx, DWORD PTR [ecx+16]
	mov	DWORD PTR [edi], 0

; 120  : 		this->Clear();
; 121  : 		ReadProcessMemory(g_Vars.hProcess, g_Vars.dwClient + c_dwBaseEntity + ((i - 1) * 16), &dw_BasePointer, sizeof(dw_BasePointer), NULL);

	push	4

; 114  : 		this->you[1] = 0;

	mov	DWORD PTR [ecx+20], 0

; 115  : 		this->you[2] = 0;

	mov	DWORD PTR [ecx+24], 0

; 120  : 		this->Clear();
; 121  : 		ReadProcessMemory(g_Vars.hProcess, g_Vars.dwClient + c_dwBaseEntity + ((i - 1) * 16), &dw_BasePointer, sizeof(dw_BasePointer), NULL);

	push	ecx
	mov	DWORD PTR _this$1$[ebp], ecx
	mov	ecx, DWORD PTR _i$[ebp]

; 113  : 		this->you[0] = 0;

	mov	DWORD PTR [ebx], 0

; 120  : 		this->Clear();
; 121  : 		ReadProcessMemory(g_Vars.hProcess, g_Vars.dwClient + c_dwBaseEntity + ((i - 1) * 16), &dw_BasePointer, sizeof(dw_BasePointer), NULL);

	mov	eax, DWORD PTR ?g_Vars@@3VC_GlobalVars@@A+36
	shl	ecx, 4
	add	eax, 80987772				; 04d3c67cH
	add	eax, ecx
	push	eax
	push	DWORD PTR ?g_Vars@@3VC_GlobalVars@@A+40
	call	DWORD PTR __imp__ReadProcessMemory@20

; 122  : 		ReadProcessMemory(g_Vars.hProcess, dw_BasePointer + Healths, &hp, sizeof(hp), NULL);

	mov	eax, DWORD PTR _this$1$[ebp]
	push	0
	push	4
	push	esi
	mov	eax, DWORD PTR [eax]
	mov	esi, DWORD PTR __imp__ReadProcessMemory@20
	add	eax, 256				; 00000100H
	push	eax
	push	DWORD PTR ?g_Vars@@3VC_GlobalVars@@A+40
	call	esi

; 123  : 		ReadProcessMemory(g_Vars.hProcess, dw_BasePointer + MyTeamAD, &Team, sizeof(Team), NULL);

	push	0
	push	4
	push	edi
	mov	edi, DWORD PTR _this$1$[ebp]
	mov	eax, DWORD PTR [edi]
	add	eax, 244				; 000000f4H
	push	eax
	push	DWORD PTR ?g_Vars@@3VC_GlobalVars@@A+40
	call	esi

; 124  : 		ReadProcessMemory(g_Vars.hProcess, dw_BasePointer + BoneOffset, &dw_BoneMatrix, sizeof(dw_BoneMatrix), NULL);

	mov	eax, DWORD PTR [edi]
	lea	esi, DWORD PTR [edi+4]
	push	0
	push	4
	push	esi
	add	eax, 9896				; 000026a8H
	push	eax
	push	DWORD PTR ?g_Vars@@3VC_GlobalVars@@A+40
	call	DWORD PTR __imp__ReadProcessMemory@20

; 125  : 		ReadProcessMemory(g_Vars.hProcess, dw_BoneMatrix + ((48 * (g_Vars.Aimbot.Bone)) + 12), &you[0], sizeof(you[0]), NULL);

	mov	eax, DWORD PTR ?g_Vars@@3VC_GlobalVars@@A+540
	push	0
	push	4
	push	ebx
	mov	ebx, DWORD PTR __imp__ReadProcessMemory@20
	lea	ecx, DWORD PTR [eax+eax*2]
	mov	eax, DWORD PTR [esi]
	shl	ecx, 4
	add	ecx, 12					; 0000000cH
	add	eax, ecx
	push	eax
	push	DWORD PTR ?g_Vars@@3VC_GlobalVars@@A+40
	call	ebx

; 126  : 		ReadProcessMemory(g_Vars.hProcess, dw_BoneMatrix + ((48 * (g_Vars.Aimbot.Bone)) + 28), &you[1], sizeof(you[1]), NULL);

	push	0
	push	4
	lea	eax, DWORD PTR [edi+20]
	push	eax
	mov	eax, DWORD PTR ?g_Vars@@3VC_GlobalVars@@A+540
	lea	ecx, DWORD PTR [eax+eax*2]
	mov	eax, DWORD PTR [esi]
	shl	ecx, 4
	add	ecx, 28					; 0000001cH
	add	eax, ecx
	push	eax
	push	DWORD PTR ?g_Vars@@3VC_GlobalVars@@A+40
	call	ebx

; 127  : 		ReadProcessMemory(g_Vars.hProcess, dw_BoneMatrix + ((48 * (g_Vars.Aimbot.Bone)) + 44), &you[2], sizeof(you[2]), NULL);

	push	0
	push	4
	lea	eax, DWORD PTR [edi+24]
	push	eax
	mov	eax, DWORD PTR ?g_Vars@@3VC_GlobalVars@@A+540
	lea	ecx, DWORD PTR [eax+eax*2]
	mov	eax, DWORD PTR [esi]
	shl	ecx, 4
	add	ecx, 44					; 0000002cH
	add	eax, ecx
	push	eax
	push	DWORD PTR ?g_Vars@@3VC_GlobalVars@@A+40
	call	ebx

; 128  : 		ReadProcessMemory(g_Vars.hProcess, dw_BasePointer + 0x134, &PlayerPos, sizeof(PlayerPos), NULL);

	mov	eax, DWORD PTR _this$1$[ebp]
	add	edi, 28					; 0000001cH
	push	0
	push	12					; 0000000cH
	push	edi
	mov	eax, DWORD PTR [eax]
	add	eax, 308				; 00000134H
	push	eax
	push	DWORD PTR ?g_Vars@@3VC_GlobalVars@@A+40
	call	ebx

; 129  : 		ReadProcessMemory(g_Vars.hProcess, dw_BasePointer + 0x104, &VecView, sizeof(VecView), NULL);

	mov	eax, DWORD PTR _this$1$[ebp]
	push	0
	push	12					; 0000000cH
	lea	esi, DWORD PTR [eax+40]
	mov	eax, DWORD PTR [eax]
	push	esi
	add	eax, 260				; 00000104H
	push	eax
	push	DWORD PTR ?g_Vars@@3VC_GlobalVars@@A+40
	call	ebx

; 130  : 		VecView[0] = VecView[0] + PlayerPos[0];
; 131  : 		VecView[1] = VecView[1] + PlayerPos[1];

	mov	ecx, DWORD PTR _this$1$[ebp]
	movss	xmm0, DWORD PTR [edi]
	addss	xmm0, DWORD PTR [esi]
	pop	edi
	movss	DWORD PTR [esi], xmm0
	movss	xmm0, DWORD PTR [ecx+32]
	addss	xmm0, DWORD PTR [ecx+44]
	pop	esi
	pop	ebx
	movss	DWORD PTR [ecx+44], xmm0

; 132  : 		VecView[2] = VecView[2] + PlayerPos[2];

	movss	xmm0, DWORD PTR [ecx+36]
	addss	xmm0, DWORD PTR [ecx+48]
	movss	DWORD PTR [ecx+48], xmm0

; 133  : 
; 134  : 		you[2] -= 65;

	movss	xmm0, DWORD PTR [ecx+24]
	subss	xmm0, DWORD PTR __real@42820000
	movss	DWORD PTR [ecx+24], xmm0

; 135  : 	}

	mov	esp, ebp
	pop	ebp
	ret	4
?ReadStructure@C_BasePlayer@@QAEXH@Z ENDP		; C_BasePlayer::ReadStructure
_TEXT	ENDS
; Function compile flags: /Ogtp
; File d:\nevoie personala\engine hack\ankfest\ankfest\ankfest.cpp
; File c:\program files (x86)\windows kits\10\include\10.0.10240.0\ucrt\math.h
; File d:\nevoie personala\engine hack\ankfest\ankfest\ankfest.cpp
; File c:\program files (x86)\windows kits\10\include\10.0.10240.0\ucrt\math.h
; File d:\nevoie personala\engine hack\ankfest\ankfest\ankfest.cpp
; File c:\program files (x86)\windows kits\10\include\10.0.10240.0\ucrt\math.h
; File d:\nevoie personala\engine hack\ankfest\ankfest\ankfest.cpp
; File d:\nevoie personala\engine hack\ankfest\ankfest\h_math.h
; File c:\program files (x86)\microsoft visual studio 14.0\vc\include\cmath
; File c:\program files (x86)\windows kits\10\include\10.0.10240.0\ucrt\math.h
; File d:\nevoie personala\engine hack\ankfest\ankfest\h_math.h
; File c:\program files (x86)\windows kits\10\include\10.0.10240.0\ucrt\math.h
; File d:\nevoie personala\engine hack\ankfest\ankfest\h_math.h
; File c:\program files (x86)\windows kits\10\include\10.0.10240.0\ucrt\math.h
; File d:\nevoie personala\engine hack\ankfest\ankfest\h_math.h
; File d:\nevoie personala\engine hack\ankfest\ankfest\ankfest.cpp
; File c:\program files (x86)\windows kits\10\include\10.0.10240.0\ucrt\math.h
; File d:\nevoie personala\engine hack\ankfest\ankfest\ankfest.cpp
; File c:\program files (x86)\windows kits\10\include\10.0.10240.0\ucrt\math.h
; File d:\nevoie personala\engine hack\ankfest\ankfest\h_math.h
; File c:\program files (x86)\windows kits\10\include\10.0.10240.0\ucrt\math.h
; File d:\nevoie personala\engine hack\ankfest\ankfest\h_math.h
; File d:\nevoie personala\engine hack\ankfest\ankfest\ankfest.cpp
; File d:\nevoie personala\engine hack\ankfest\ankfest\h_math.h
; File c:\program files (x86)\windows kits\10\include\10.0.10240.0\ucrt\math.h
; File d:\nevoie personala\engine hack\ankfest\ankfest\ankfest.cpp
; File c:\program files (x86)\windows kits\10\include\10.0.10240.0\ucrt\math.h
; File d:\nevoie personala\engine hack\ankfest\ankfest\ankfest.cpp
; File d:\nevoie personala\engine hack\ankfest\ankfest\h_weapons.h
; File d:\nevoie personala\engine hack\ankfest\ankfest\ankfest.cpp
; File d:\nevoie personala\engine hack\ankfest\ankfest\h_weapons.h
; File d:\nevoie personala\engine hack\ankfest\ankfest\ankfest.cpp
; File d:\nevoie personala\engine hack\ankfest\ankfest\h_math.h
; File d:\nevoie personala\engine hack\ankfest\ankfest\ankfest.cpp
;	COMDAT ?Aimbot@@YAKPAX@Z
_TEXT	SEGMENT
?g_Vars@@3VC_GlobalVars@@A$9 = -3508			; size = 4
?g_Vars@@3VC_GlobalVars@@A$3 = -3508			; size = 4
?g_Vars@@3VC_GlobalVars@@A$8 = -3504			; size = 4
?g_Vars@@3VC_GlobalVars@@A$14 = -3500			; size = 4
tv1277 = -3500						; size = 4
?g_Vars@@3VC_GlobalVars@@A$13 = -3496			; size = 4
?g_Vars@@3VC_GlobalVars@@A$12 = -3492			; size = 4
$T3 = -3488						; size = 4
_i$1$ = -3484						; size = 4
_gLocalBasePlayer$8 = -3480				; size = 84
_gBasePlayer$9 = -3392					; size = 3380
__$ArrayPad$ = -4					; size = 4
_pParam$ = 8						; size = 4
?Aimbot@@YAKPAX@Z PROC					; Aimbot, COMDAT

; 148  : {

	push	ebp
	mov	ebp, esp
	and	esp, -8					; fffffff8H
	sub	esp, 3512				; 00000db8H
	mov	eax, DWORD PTR ___security_cookie
	xor	eax, esp
	mov	DWORD PTR __$ArrayPad$[esp+3512], eax
	push	esi
	push	edi
	npad	4
$LL2@Aimbot:

; 149  : 	while (true)
; 150  : 	{
; 151  : 		Sleep(5);

	push	5
	call	DWORD PTR __imp__Sleep@4

; 152  : 
; 153  : 		if (g_Vars.Aimbot.Enabled == 1)

	cmp	DWORD PTR ?g_Vars@@3VC_GlobalVars@@A+524, 1
	jne	SHORT $LL2@Aimbot

; 154  : 		{
; 155  : 			LocalBasePlayer gLocalBasePlayer;
; 156  : 			C_BasePlayer gBasePlayer[65];
; 157  : 
; 158  : 			gLocalBasePlayer.ReadStructure();

	lea	ecx, DWORD PTR _gLocalBasePlayer$8[esp+3520]
	call	?ReadStructure@C_LocalBase@@QAEXXZ	; C_LocalBase::ReadStructure

; 159  : 
; 160  : 			if (GetAsyncKeyState(g_Vars.Aimbot.Key))

	push	DWORD PTR ?g_Vars@@3VC_GlobalVars@@A+528
	call	DWORD PTR __imp__GetAsyncKeyState@4
	test	ax, ax
	je	SHORT $LL2@Aimbot

; 161  : 			{
; 162  : 				DropTarget();
; 163  : 
; 164  : 				for (int i = 0; i < 64; i++)

	xor	eax, eax

; 140  : 	g_Vars.vAimVectorGeneral[0] = 0;

	mov	DWORD PTR ?g_Vars@@3VC_GlobalVars@@A+56, 0

; 141  : 	g_Vars.vAimVectorGeneral[1] = 0;

	mov	DWORD PTR ?g_Vars@@3VC_GlobalVars@@A+60, 0
	lea	edi, DWORD PTR _gBasePlayer$9[esp+3536]

; 142  : 	g_Vars.vAimVectorGeneral[2] = 0;

	mov	DWORD PTR ?g_Vars@@3VC_GlobalVars@@A+64, 0

; 143  : 	g_Vars.fNearestTarget = 99999.9f;

	mov	DWORD PTR ?g_Vars@@3VC_GlobalVars@@A+220, 1203982323 ; 47c34ff3H

; 144  : 	g_Vars.iNearestTarget = -1;

	mov	DWORD PTR ?g_Vars@@3VC_GlobalVars@@A+232, -1

; 161  : 			{
; 162  : 				DropTarget();
; 163  : 
; 164  : 				for (int i = 0; i < 64; i++)

	mov	DWORD PTR _i$1$[esp+3520], eax
	npad	6
$LL6@Aimbot:

; 165  : 				{
; 166  : 					gBasePlayer[i].ReadStructure(i);

	push	eax
	lea	ecx, DWORD PTR [edi-16]
	call	?ReadStructure@C_BasePlayer@@QAEXH@Z	; C_BasePlayer::ReadStructure

; 167  : 
; 168  : 					if (gBasePlayer[i].hp > 0)

	cmp	DWORD PTR [edi-8], 0
	jle	$LN4@Aimbot

; 169  : 					{
; 170  : 						if (gBasePlayer[i].Team != gLocalBasePlayer.MyTeam)

	mov	eax, DWORD PTR [edi-4]
	cmp	eax, DWORD PTR _gLocalBasePlayer$8[esp+3592]
	je	$LN4@Aimbot

; 171  : 						{
; 172  : 							g_Vars.Distance = sqrt(((gLocalBasePlayer.i1[0] - gBasePlayer[i].you[0]) * (gLocalBasePlayer.i1[0] - gBasePlayer[i].you[0])) + ((gLocalBasePlayer.i1[1] - gBasePlayer[i].you[1]) * (gLocalBasePlayer.i1[1] - gBasePlayer[i].you[1])) + ((gLocalBasePlayer.i1[2] - gBasePlayer[i].you[2]) * (gLocalBasePlayer.i1[2] - gBasePlayer[i].you[2])));

	movss	xmm2, DWORD PTR _gLocalBasePlayer$8[esp+3548]
	movss	xmm1, DWORD PTR _gLocalBasePlayer$8[esp+3544]
	movss	xmm0, DWORD PTR [edi]
	movss	DWORD PTR ?g_Vars@@3VC_GlobalVars@@A$12[esp+3520], xmm1
	subss	xmm1, xmm0
	movss	DWORD PTR ?g_Vars@@3VC_GlobalVars@@A$13[esp+3520], xmm2
	subss	xmm2, DWORD PTR [edi+4]
	movss	DWORD PTR ?g_Vars@@3VC_GlobalVars@@A$3[esp+3520], xmm0
	movss	xmm0, DWORD PTR _gLocalBasePlayer$8[esp+3552]
	movss	DWORD PTR ?g_Vars@@3VC_GlobalVars@@A$14[esp+3520], xmm0
	subss	xmm0, DWORD PTR [edi+8]
	mulss	xmm1, xmm1
	mulss	xmm2, xmm2
	mulss	xmm0, xmm0
	addss	xmm1, xmm2
	addss	xmm1, xmm0
; File c:\program files (x86)\windows kits\10\include\10.0.10240.0\ucrt\math.h

; 746  :         return (float)sqrt(_X);

	cvtps2pd xmm0, xmm1
	call	__libm_sse2_sqrt_precise
	xorps	xmm1, xmm1
	cvtsd2ss xmm1, xmm0
; File d:\nevoie personala\engine hack\ankfest\ankfest\ankfest.cpp

; 173  : 							g_Vars.Angle[0] = ((asin((gBasePlayer[i].you[2] - gLocalBasePlayer.i1[2]) / g_Vars.Distance) * 180 / M_PI) * -1);

	movss	xmm0, DWORD PTR [edi+8]
	subss	xmm0, DWORD PTR _gLocalBasePlayer$8[esp+3552]
	movss	DWORD PTR ?g_Vars@@3VC_GlobalVars@@A+224, xmm1
	divss	xmm0, xmm1
; File c:\program files (x86)\windows kits\10\include\10.0.10240.0\ucrt\math.h

; 615  :         return (float)asin(_X);

	cvtps2pd xmm0, xmm0
	call	__libm_sse2_asin_precise
; File d:\nevoie personala\engine hack\ankfest\ankfest\ankfest.cpp

; 173  : 							g_Vars.Angle[0] = ((asin((gBasePlayer[i].you[2] - gLocalBasePlayer.i1[2]) / g_Vars.Distance) * 180 / M_PI) * -1);

	movss	xmm3, DWORD PTR __real@43340000
	xorps	xmm2, xmm2
; File c:\program files (x86)\windows kits\10\include\10.0.10240.0\ucrt\math.h

; 615  :         return (float)asin(_X);

	cvtsd2ss xmm0, xmm0
; File d:\nevoie personala\engine hack\ankfest\ankfest\ankfest.cpp

; 174  : 							g_Vars.Angle[1] = (g_Math.ATAN2(gBasePlayer[i].you[0] - gLocalBasePlayer.i1[0], gBasePlayer[i].you[1] - gLocalBasePlayer.i1[1]) / M_PI * 180);

	movss	xmm5, DWORD PTR _gLocalBasePlayer$8[esp+3548]
	xorps	xmm4, xmm4
	mulss	xmm0, xmm3
	movss	xmm7, DWORD PTR [edi]
	movss	xmm6, DWORD PTR _gLocalBasePlayer$8[esp+3544]
	movaps	xmm1, xmm7
	cvtss2sd xmm0, xmm0
	subss	xmm1, xmm6
	divsd	xmm0, QWORD PTR __real@400921fb54442d18
	mulsd	xmm0, QWORD PTR __real@bff0000000000000
	cvtsd2ss xmm2, xmm0
	movss	xmm0, DWORD PTR [edi+4]
	subss	xmm0, xmm5
	movss	DWORD PTR ?g_Vars@@3VC_GlobalVars@@A$8[esp+3520], xmm2
	movss	DWORD PTR ?g_Vars@@3VC_GlobalVars@@A+188, xmm2
; File d:\nevoie personala\engine hack\ankfest\ankfest\h_math.h

; 19   : 		if (y < 0){

	comiss	xmm4, xmm0
	jbe	SHORT $LN50@Aimbot

; 20   : 			return -ATAN2(x, -y);

	xorps	xmm0, DWORD PTR __xmm@80000000800000008000000080000000
	mov	ecx, OFFSET ?g_Math@@3VC_Math@@A	; g_Math
	movaps	xmm2, xmm0
	call	?ATAN2@C_Math@@QAEMMM@Z			; C_Math::ATAN2
	xorps	xmm0, DWORD PTR __xmm@80000000800000008000000080000000
$LN133@Aimbot:
	movss	xmm2, DWORD PTR ?g_Vars@@3VC_GlobalVars@@A$8[esp+3520]
	movss	xmm3, DWORD PTR __real@43340000
	movss	xmm5, DWORD PTR ?g_Vars@@3VC_GlobalVars@@A$13[esp+3520]
	movss	xmm6, DWORD PTR ?g_Vars@@3VC_GlobalVars@@A$12[esp+3520]
	movss	xmm7, DWORD PTR ?g_Vars@@3VC_GlobalVars@@A$3[esp+3520]
	movss	DWORD PTR $T3[esp+3520], xmm0
	jmp	SHORT $LN56@Aimbot
$LN50@Aimbot:

; 21   : 		}
; 22   : 		else if (x < 0){

	comiss	xmm4, xmm1
	jbe	SHORT $LN52@Aimbot

; 23   : 			return M_PI - atan(-y / x);

	divss	xmm0, xmm1
; File c:\program files (x86)\microsoft visual studio 14.0\vc\include\cmath

; 57   : 	return (_CSTD atanf(_Xx));

	xorps	xmm0, DWORD PTR __xmm@80000000800000008000000080000000
; File c:\program files (x86)\windows kits\10\include\10.0.10240.0\ucrt\math.h

; 625  :         return (float)atan(_X);

	cvtss2sd xmm0, xmm0
	call	__libm_sse2_atan_precise
; File d:\nevoie personala\engine hack\ankfest\ankfest\h_math.h

; 23   : 			return M_PI - atan(-y / x);

	movsd	xmm1, QWORD PTR __real@400921fb54442d18
; File c:\program files (x86)\windows kits\10\include\10.0.10240.0\ucrt\math.h

; 625  :         return (float)atan(_X);

	cvtsd2ss xmm0, xmm0
; File d:\nevoie personala\engine hack\ankfest\ankfest\h_math.h

; 23   : 			return M_PI - atan(-y / x);

	cvtss2sd xmm0, xmm0
	subsd	xmm1, xmm0
	cvtpd2ps xmm0, xmm1
	jmp	SHORT $LN133@Aimbot
$LN52@Aimbot:

; 24   : 		}
; 25   : 		else if (x > 0){

	comiss	xmm1, xmm4
	jbe	SHORT $LN54@Aimbot

; 26   : 			return atan(y / x);

	divss	xmm0, xmm1
; File c:\program files (x86)\windows kits\10\include\10.0.10240.0\ucrt\math.h

; 625  :         return (float)atan(_X);

	cvtps2pd xmm0, xmm0
	call	__libm_sse2_atan_precise
	cvtsd2ss xmm0, xmm0
; File d:\nevoie personala\engine hack\ankfest\ankfest\h_math.h

; 26   : 			return atan(y / x);

	jmp	SHORT $LN133@Aimbot
$LN54@Aimbot:

; 27   : 		}
; 28   : 		else if (y != 0){

	ucomiss	xmm0, xmm4
	lahf
	test	ah, 68					; 00000044H
	jnp	SHORT $LN132@Aimbot

; 29   : 			return M_PI / 2;

	movss	xmm0, DWORD PTR __real@3fc90fdb
	movss	DWORD PTR $T3[esp+3520], xmm0
	jmp	SHORT $LN56@Aimbot
$LN132@Aimbot:
	movss	xmm0, DWORD PTR $T3[esp+3520]
$LN56@Aimbot:
; File d:\nevoie personala\engine hack\ankfest\ankfest\ankfest.cpp

; 174  : 							g_Vars.Angle[1] = (g_Math.ATAN2(gBasePlayer[i].you[0] - gLocalBasePlayer.i1[0], gBasePlayer[i].you[1] - gLocalBasePlayer.i1[1]) / M_PI * 180);

	cvtss2sd xmm0, xmm0

; 175  : 
; 176  : 							if (g_Vars.Aimbot.RCS == 0)

	mov	esi, DWORD PTR ?g_Vars@@3VC_GlobalVars@@A+544
	xorps	xmm1, xmm1

; 177  : 							{
; 178  : 								g_Vars.Aimmin[0] = g_Vars.Angle[0] - (gLocalBasePlayer.MeFov[0]);

	movaps	xmm4, xmm2
	divsd	xmm0, QWORD PTR __real@400921fb54442d18
	mulsd	xmm0, QWORD PTR __real@4066800000000000
	cvtsd2ss xmm1, xmm0
	movss	DWORD PTR ?g_Vars@@3VC_GlobalVars@@A$9[esp+3520], xmm1

; 179  : 								g_Vars.Aimmin[1] = g_Vars.Angle[1] - (gLocalBasePlayer.MeFov[1]);

	movaps	xmm2, xmm1
	movss	DWORD PTR ?g_Vars@@3VC_GlobalVars@@A+192, xmm1
	test	esi, esi
	jne	SHORT $LN11@Aimbot
	subss	xmm4, DWORD PTR _gLocalBasePlayer$8[esp+3556]
	subss	xmm2, DWORD PTR _gLocalBasePlayer$8[esp+3560]

; 180  : 							}
; 181  : 							else

	jmp	SHORT $LN134@Aimbot
$LN11@Aimbot:

; 182  : 							{
; 183  : 								g_Vars.Aimmin[0] = g_Vars.Angle[0] - (gLocalBasePlayer.MeFov[0] + gLocalBasePlayer.recoil[0]);

	movss	xmm0, DWORD PTR _gLocalBasePlayer$8[esp+3568]
	addss	xmm0, DWORD PTR _gLocalBasePlayer$8[esp+3556]
	subss	xmm4, xmm0

; 184  : 								g_Vars.Aimmin[1] = g_Vars.Angle[1] - (gLocalBasePlayer.MeFov[1] + gLocalBasePlayer.recoil[1]);

	movss	xmm0, DWORD PTR _gLocalBasePlayer$8[esp+3572]
	addss	xmm0, DWORD PTR _gLocalBasePlayer$8[esp+3560]
	subss	xmm2, xmm0
$LN134@Aimbot:

; 185  : 							}
; 186  : 
; 187  : 							if (g_Vars.Aimmin[0] > 180) { g_Vars.Aimmin[0] -= 360; }

	comiss	xmm4, xmm3
	movss	xmm0, DWORD PTR __real@43b40000
	movss	DWORD PTR ?g_Vars@@3VC_GlobalVars@@A+204, xmm2
	movss	DWORD PTR ?g_Vars@@3VC_GlobalVars@@A+200, xmm4
	jbe	SHORT $LN13@Aimbot
	subss	xmm4, xmm0
	movss	DWORD PTR ?g_Vars@@3VC_GlobalVars@@A+200, xmm4
$LN13@Aimbot:

; 188  : 							if (g_Vars.Aimmin[1] > 180) { g_Vars.Aimmin[1] -= 360; }

	comiss	xmm2, xmm3
	jbe	SHORT $LN14@Aimbot
	subss	xmm2, xmm0
	movss	DWORD PTR ?g_Vars@@3VC_GlobalVars@@A+204, xmm2
$LN14@Aimbot:

; 189  : 							if (g_Vars.Aimmin[0] < -180) { g_Vars.Aimmin[0] += 360; }

	movss	xmm1, DWORD PTR __real@c3340000
	comiss	xmm1, xmm4
	jbe	SHORT $LN15@Aimbot
	addss	xmm4, xmm0
	movss	DWORD PTR ?g_Vars@@3VC_GlobalVars@@A+200, xmm4
$LN15@Aimbot:

; 190  : 							if (g_Vars.Aimmin[1] < -180) { g_Vars.Aimmin[1] += 360; }

	comiss	xmm1, xmm2
	jbe	SHORT $LN16@Aimbot
	addss	xmm2, xmm0
	movss	DWORD PTR ?g_Vars@@3VC_GlobalVars@@A+204, xmm2
$LN16@Aimbot:

; 191  : 
; 192  : 							g_Vars.vAimVectorGeneral[0] = gBasePlayer[i].you[0];
; 193  : 							g_Vars.vAimVectorGeneral[1] = gBasePlayer[i].you[1];

	movss	xmm0, DWORD PTR [edi+4]

; 194  : 							g_Vars.vAimVectorGeneral[2] = gBasePlayer[i].you[2];
; 195  : 
; 196  : 							g_Vars.GeneralAimbot[0] = gLocalBasePlayer.i1[0] - g_Vars.vAimVectorGeneral[0];

	subss	xmm6, xmm7
	movss	xmm1, DWORD PTR [edi+8]

; 197  : 							g_Vars.GeneralAimbot[1] = gLocalBasePlayer.i1[1] - g_Vars.vAimVectorGeneral[1];

	subss	xmm5, xmm0
	movss	DWORD PTR ?g_Vars@@3VC_GlobalVars@@A+60, xmm0

; 198  : 							g_Vars.GeneralAimbot[2] = gLocalBasePlayer.i1[2] - g_Vars.vAimVectorGeneral[2];

	movss	xmm0, DWORD PTR ?g_Vars@@3VC_GlobalVars@@A$14[esp+3520]

; 200  : 							g_Vars.fovdist = sqrt((g_Vars.Aimmin[0] * g_Vars.Aimmin[0]) + (g_Vars.Aimmin[1] * g_Vars.Aimmin[1]));

	mulss	xmm2, xmm2
	subss	xmm0, xmm1
	mulss	xmm4, xmm4
	movss	DWORD PTR ?g_Vars@@3VC_GlobalVars@@A+56, xmm7
	movss	DWORD PTR ?g_Vars@@3VC_GlobalVars@@A$14[esp+3520], xmm0
	addss	xmm2, xmm4
	movss	DWORD PTR ?g_Vars@@3VC_GlobalVars@@A+100, xmm0
	movss	DWORD PTR ?g_Vars@@3VC_GlobalVars@@A+64, xmm1
	movss	DWORD PTR ?g_Vars@@3VC_GlobalVars@@A$12[esp+3520], xmm6
	movss	DWORD PTR ?g_Vars@@3VC_GlobalVars@@A+92, xmm6
	movss	DWORD PTR ?g_Vars@@3VC_GlobalVars@@A$13[esp+3520], xmm5
; File c:\program files (x86)\windows kits\10\include\10.0.10240.0\ucrt\math.h

; 746  :         return (float)sqrt(_X);

	cvtps2pd xmm0, xmm2
; File d:\nevoie personala\engine hack\ankfest\ankfest\ankfest.cpp

; 197  : 							g_Vars.GeneralAimbot[1] = gLocalBasePlayer.i1[1] - g_Vars.vAimVectorGeneral[1];

	movss	DWORD PTR ?g_Vars@@3VC_GlobalVars@@A+96, xmm5
; File c:\program files (x86)\windows kits\10\include\10.0.10240.0\ucrt\math.h

; 746  :         return (float)sqrt(_X);

	call	__libm_sse2_sqrt_precise
; File d:\nevoie personala\engine hack\ankfest\ankfest\h_math.h

; 35   : 		return (float)sqrt(v[0] * v[0] + v[1] * v[1] + v[2] * v[2]);

	movss	xmm1, DWORD PTR ?g_Vars@@3VC_GlobalVars@@A$12[esp+3520]
; File c:\program files (x86)\windows kits\10\include\10.0.10240.0\ucrt\math.h

; 746  :         return (float)sqrt(_X);

	cvtsd2ss xmm0, xmm0
; File d:\nevoie personala\engine hack\ankfest\ankfest\h_math.h

; 35   : 		return (float)sqrt(v[0] * v[0] + v[1] * v[1] + v[2] * v[2]);

	mulss	xmm1, xmm1
; File d:\nevoie personala\engine hack\ankfest\ankfest\ankfest.cpp

; 200  : 							g_Vars.fovdist = sqrt((g_Vars.Aimmin[0] * g_Vars.Aimmin[0]) + (g_Vars.Aimmin[1] * g_Vars.Aimmin[1]));

	movss	DWORD PTR ?g_Vars@@3VC_GlobalVars@@A+228, xmm0
; File d:\nevoie personala\engine hack\ankfest\ankfest\h_math.h

; 35   : 		return (float)sqrt(v[0] * v[0] + v[1] * v[1] + v[2] * v[2]);

	movss	xmm0, DWORD PTR ?g_Vars@@3VC_GlobalVars@@A$13[esp+3520]
	mulss	xmm0, xmm0
	addss	xmm0, xmm1
	movss	xmm1, DWORD PTR ?g_Vars@@3VC_GlobalVars@@A$14[esp+3520]
	mulss	xmm1, xmm1
	addss	xmm0, xmm1
; File c:\program files (x86)\windows kits\10\include\10.0.10240.0\ucrt\math.h

; 746  :         return (float)sqrt(_X);

	cvtps2pd xmm0, xmm0
	call	__libm_sse2_sqrt_precise
; File d:\nevoie personala\engine hack\ankfest\ankfest\ankfest.cpp

; 204  : 							if (g_Vars.fovdist < g_Vars.Aimbot.FOV / 2)

	mov	eax, DWORD PTR ?g_Vars@@3VC_GlobalVars@@A+532
	xorps	xmm1, xmm1
	movss	xmm2, DWORD PTR ?g_Vars@@3VC_GlobalVars@@A+228
	cdq
	sub	eax, edx
	movss	DWORD PTR ?g_Vars@@3VC_GlobalVars@@A+216, xmm2
	sar	eax, 1
; File c:\program files (x86)\windows kits\10\include\10.0.10240.0\ucrt\math.h

; 746  :         return (float)sqrt(_X);

	cvtsd2ss xmm1, xmm0
	movd	xmm0, eax
; File d:\nevoie personala\engine hack\ankfest\ankfest\ankfest.cpp

; 204  : 							if (g_Vars.fovdist < g_Vars.Aimbot.FOV / 2)

	cvtdq2ps xmm0, xmm0
	movss	DWORD PTR ?g_Vars@@3VC_GlobalVars@@A+212, xmm1
	comiss	xmm0, xmm2
	jbe	$LN4@Aimbot

; 205  : 							{
; 206  : 								if (g_Vars.TargetSelection < g_Vars.fNearestTarget && g_Vars.TargetSelection2 < g_Vars.fNearestTarget)

	movss	xmm0, DWORD PTR ?g_Vars@@3VC_GlobalVars@@A+220
	comiss	xmm0, xmm1
	jbe	$LN4@Aimbot
	comiss	xmm0, xmm2
	jbe	$LN4@Aimbot

; 207  : 								{
; 208  : 									g_Vars.fNearestTarget = g_Vars.TargetSelection;
; 209  : 									g_Vars.iNearestTarget = i;

	mov	eax, DWORD PTR _i$1$[esp+3520]

; 210  : 
; 211  : 									if (g_Vars.Aimbot.RCS == 1 && !g_Nospread.IsNonRcs(g_Vars.m_iWeaponID))
; 212  : 									{
; 213  : 										g_Vars.Angle[0] -= gLocalBasePlayer.recoil[0];

	movss	xmm3, DWORD PTR ?g_Vars@@3VC_GlobalVars@@A$8[esp+3520]

; 214  : 										g_Vars.Angle[1] -= gLocalBasePlayer.recoil[1];

	movss	xmm2, DWORD PTR ?g_Vars@@3VC_GlobalVars@@A$9[esp+3520]
	mov	DWORD PTR ?g_Vars@@3VC_GlobalVars@@A+232, eax
	mov	eax, DWORD PTR ?g_Vars@@3VC_GlobalVars@@A+236
	movss	DWORD PTR ?g_Vars@@3VC_GlobalVars@@A+220, xmm1
	cmp	esi, 1
	jne	SHORT $LN19@Aimbot
; File d:\nevoie personala\engine hack\ankfest\ankfest\h_weapons.h

; 57   : 		return(weaponid == WEAPON_DEAGLE || weaponid == WEAPON_ELITE || weaponid == WEAPON_FIVESEVEN || weaponid == WEAPON_GLOCK || weaponid == WEAPON_P250 || weaponid == WEAPON_HKP2000 || weaponid == WEAPON_USP || weaponid == WEAPON_TEC9);

	cmp	eax, 1
	je	SHORT $LN19@Aimbot
	cmp	eax, 2
	je	SHORT $LN19@Aimbot
	cmp	eax, 3
	je	SHORT $LN19@Aimbot
	cmp	eax, 4
	je	SHORT $LN19@Aimbot
	cmp	eax, 36					; 00000024H
	je	SHORT $LN19@Aimbot
	cmp	eax, 32					; 00000020H
	je	SHORT $LN19@Aimbot
	cmp	eax, 61					; 0000003dH
	je	SHORT $LN19@Aimbot
	cmp	eax, 30					; 0000001eH
	je	SHORT $LN19@Aimbot
; File d:\nevoie personala\engine hack\ankfest\ankfest\ankfest.cpp

; 214  : 										g_Vars.Angle[1] -= gLocalBasePlayer.recoil[1];

	subss	xmm3, DWORD PTR _gLocalBasePlayer$8[esp+3568]
	subss	xmm2, DWORD PTR _gLocalBasePlayer$8[esp+3572]
	movss	DWORD PTR ?g_Vars@@3VC_GlobalVars@@A+188, xmm3
	movss	DWORD PTR ?g_Vars@@3VC_GlobalVars@@A+192, xmm2
$LN19@Aimbot:

; 215  : 									}
; 216  : 
; 217  : 									if (g_Vars.Aimbot.Smooth > 0.0)

	movss	xmm0, DWORD PTR ?g_Vars@@3VC_GlobalVars@@A+536
	comiss	xmm0, DWORD PTR __real@00000000

; 218  : 									{
; 219  : 										float Diff[3];
; 220  : 
; 221  : 										Diff[0] = g_Vars.Angle[0] - gLocalBasePlayer.flAngle[0];
; 222  : 										Diff[1] = g_Vars.Angle[1] - gLocalBasePlayer.flAngle[1];
; 223  : 
; 224  : 										if (Diff[0] > 180)  Diff[0] -= 360;

	movss	xmm4, DWORD PTR __real@43340000
	jbe	$LN130@Aimbot
	movss	xmm1, DWORD PTR __real@43b40000
	movaps	xmm6, xmm3
	subss	xmm6, DWORD PTR _gLocalBasePlayer$8[esp+3532]
	movaps	xmm7, xmm2
	subss	xmm7, DWORD PTR _gLocalBasePlayer$8[esp+3536]
	comiss	xmm6, xmm4
	jbe	SHORT $LN21@Aimbot
	subss	xmm6, xmm1
$LN21@Aimbot:

; 225  : 										if (Diff[1] > 180)  Diff[1] -= 360;

	comiss	xmm7, xmm4
	jbe	SHORT $LN22@Aimbot
	subss	xmm7, xmm1
$LN22@Aimbot:

; 226  : 										if (Diff[0] < -180) Diff[0] += 360;

	movss	xmm5, DWORD PTR __real@c3340000
	comiss	xmm5, xmm6
	jbe	SHORT $LN23@Aimbot
	addss	xmm6, xmm1
$LN23@Aimbot:

; 227  : 										if (Diff[1] <-180) Diff[1] += 360;

	comiss	xmm5, xmm7
	jbe	SHORT $LN24@Aimbot
	addss	xmm7, xmm1
$LN24@Aimbot:

; 228  : 										if (Diff[0] >   2 / g_Vars.Aimbot.Smooth) { g_Vars.Angle[0] = gLocalBasePlayer.flAngle[0] + 2 / g_Vars.Aimbot.Smooth; }

	movss	xmm0, DWORD PTR __real@40000000
	divss	xmm0, DWORD PTR ?g_Vars@@3VC_GlobalVars@@A+536
	comiss	xmm6, xmm0
	movss	DWORD PTR tv1277[esp+3520], xmm0
	jbe	SHORT $LN25@Aimbot
	movaps	xmm3, xmm0
	addss	xmm3, DWORD PTR _gLocalBasePlayer$8[esp+3532]
	jmp	SHORT $LN136@Aimbot
$LN25@Aimbot:

; 229  : 										else if (Diff[0] < -2 / g_Vars.Aimbot.Smooth) { g_Vars.Angle[0] = gLocalBasePlayer.flAngle[0] - 2 / g_Vars.Aimbot.Smooth; }

	movss	xmm0, DWORD PTR __real@c0000000
	divss	xmm0, DWORD PTR ?g_Vars@@3VC_GlobalVars@@A+536
	comiss	xmm0, xmm6
	movss	xmm0, DWORD PTR tv1277[esp+3520]
	jbe	SHORT $LN27@Aimbot
	movss	xmm3, DWORD PTR _gLocalBasePlayer$8[esp+3532]
	subss	xmm3, xmm0
$LN136@Aimbot:
	movss	DWORD PTR ?g_Vars@@3VC_GlobalVars@@A+188, xmm3
$LN27@Aimbot:

; 230  : 										if (Diff[1] >   2 / g_Vars.Aimbot.Smooth) { g_Vars.Angle[1] = gLocalBasePlayer.flAngle[1] + 2 / g_Vars.Aimbot.Smooth; }

	comiss	xmm7, xmm0
	jbe	SHORT $LN28@Aimbot
	movaps	xmm2, xmm0
	addss	xmm2, DWORD PTR _gLocalBasePlayer$8[esp+3536]
	jmp	SHORT $LN135@Aimbot
$LN28@Aimbot:

; 231  : 										else if (Diff[1] < -2 / g_Vars.Aimbot.Smooth) { g_Vars.Angle[1] = gLocalBasePlayer.flAngle[1] - 2 / g_Vars.Aimbot.Smooth; }

	movss	xmm0, DWORD PTR __real@c0000000
	divss	xmm0, DWORD PTR ?g_Vars@@3VC_GlobalVars@@A+536
	comiss	xmm0, xmm7
	jbe	SHORT $LN30@Aimbot
	movss	xmm2, DWORD PTR _gLocalBasePlayer$8[esp+3536]
	subss	xmm2, DWORD PTR tv1277[esp+3520]
$LN135@Aimbot:
	movss	DWORD PTR ?g_Vars@@3VC_GlobalVars@@A+192, xmm2
$LN30@Aimbot:

; 232  : 										if (g_Vars.Angle[0] > 180)  g_Vars.Angle[0] -= 360;

	comiss	xmm3, xmm4
	jbe	SHORT $LN31@Aimbot
	subss	xmm3, xmm1
	movss	DWORD PTR ?g_Vars@@3VC_GlobalVars@@A+188, xmm3
$LN31@Aimbot:

; 233  : 										if (g_Vars.Angle[1] > 180)  g_Vars.Angle[1] -= 360;

	comiss	xmm2, xmm4
	jbe	SHORT $LN32@Aimbot
	subss	xmm2, xmm1
	movss	DWORD PTR ?g_Vars@@3VC_GlobalVars@@A+192, xmm2
$LN32@Aimbot:

; 234  : 										if (g_Vars.Angle[0] < -180) g_Vars.Angle[0] += 360;

	comiss	xmm5, xmm3
	jbe	SHORT $LN33@Aimbot
	addss	xmm3, xmm1
	movss	DWORD PTR ?g_Vars@@3VC_GlobalVars@@A+188, xmm3
$LN33@Aimbot:

; 235  : 										if (g_Vars.Angle[1] < -180) g_Vars.Angle[1] += 360;

	comiss	xmm5, xmm2
	jbe	SHORT $LN34@Aimbot
	addss	xmm2, xmm1
	movss	DWORD PTR ?g_Vars@@3VC_GlobalVars@@A+192, xmm2
	jmp	SHORT $LN34@Aimbot
$LN130@Aimbot:
	movss	xmm5, DWORD PTR __real@c3340000
$LN34@Aimbot:
; File d:\nevoie personala\engine hack\ankfest\ankfest\h_weapons.h

; 52   : 		return(weaponid == WEAPON_KNIFEGG || weaponid == WEAPON_KNIFE || weaponid == WEAPON_NONE || weaponid == WEAPON_FLASH || weaponid == WEAPON_SMOKE || weaponid == WEAPON_MOLOTOV || weaponid == WEAPON_DECOY || weaponid == WEAPON_INCGRENADE || weaponid == WEAPON_C4);

	cmp	eax, 41					; 00000029H
	je	$LN4@Aimbot
	cmp	eax, 42					; 0000002aH
	je	$LN4@Aimbot
	test	eax, eax
	je	$LN4@Aimbot
	cmp	eax, 43					; 0000002bH
	je	$LN4@Aimbot
	cmp	eax, 45					; 0000002dH
	je	$LN4@Aimbot
	cmp	eax, 46					; 0000002eH
	je	$LN4@Aimbot
	cmp	eax, 47					; 0000002fH
	je	$LN4@Aimbot
	cmp	eax, 48					; 00000030H
	je	$LN4@Aimbot
	cmp	eax, 49					; 00000031H
	je	$LN4@Aimbot
; File d:\nevoie personala\engine hack\ankfest\ankfest\ankfest.cpp

; 241  : 									g_Vars.Angle[2] = 0.0f;

	mov	DWORD PTR ?g_Vars@@3VC_GlobalVars@@A+196, 0
	mov	eax, OFFSET ?g_Vars@@3VC_GlobalVars@@A+196
	npad	4
$LL91@Aimbot:
; File d:\nevoie personala\engine hack\ankfest\ankfest\h_math.h

; 120  : 			while (angle[axis] > 180.f)

	movss	xmm0, DWORD PTR [eax]
	comiss	xmm0, xmm4
	movss	xmm1, DWORD PTR __real@43b40000
	jbe	SHORT $LN101@Aimbot
$LL92@Aimbot:

; 121  : 			{
; 122  : 				angle[axis] -= 360.f;

	movss	xmm0, DWORD PTR [eax]
	subss	xmm0, xmm1
	comiss	xmm0, xmm4
	movss	DWORD PTR [eax], xmm0
	ja	SHORT $LL92@Aimbot
$LN101@Aimbot:

; 123  : 			}
; 124  : 			while (angle[axis] < -180.f)

	comiss	xmm5, DWORD PTR [eax]
	jbe	SHORT $LN89@Aimbot
	npad	9
$LL94@Aimbot:

; 125  : 			{
; 126  : 				angle[axis] += 360.f;

	movss	xmm0, DWORD PTR [eax]
	addss	xmm0, xmm1
	comiss	xmm5, xmm0
	movss	DWORD PTR [eax], xmm0
	ja	SHORT $LL94@Aimbot
$LN89@Aimbot:

; 36   : 	}
; 37   : 
; 38   : 	void AngleVectors(float *angles, float *forward, float *right, float *up)
; 39   : 	{
; 40   : 		float angle;
; 41   : 		static float sp, sy, cp, cy;
; 42   : 		angle = angles[0] * (M_PI / 180);
; 43   : 		sp = sin(angle);
; 44   : 		cp = cos(angle);
; 45   : 		angle = angles[1] * (M_PI / 180);
; 46   : 		sy = sin(angle);
; 47   : 		cy = cos(angle);
; 48   : 
; 49   : 		if (forward)
; 50   : 		{
; 51   : 			forward[0] = cp*cy;
; 52   : 			forward[1] = cp*sy;
; 53   : 			forward[2] = -sp;
; 54   : 		}
; 55   : 
; 56   : 		if (right || up)
; 57   : 		{
; 58   : 			static float sr, cr;
; 59   : 			angle = angles[2] * (M_PI / 180);
; 60   : 			sr = sin(angle);
; 61   : 			cr = cos(angle);
; 62   : 
; 63   : 			if (right)
; 64   : 			{
; 65   : 				right[0] = -1 * sr*sp*cy + -1 * cr*-sy;
; 66   : 				right[1] = -1 * sr*sp*sy + -1 * cr*cy;
; 67   : 				right[2] = -1 * sr*cp;
; 68   : 			}
; 69   : 
; 70   : 			if (up)
; 71   : 			{
; 72   : 				up[0] = cr*sp*cy + -sr*-sy;
; 73   : 				up[1] = cr*sp*sy + -sr*cy;
; 74   : 				up[2] = cr*cp;
; 75   : 			}
; 76   : 		}
; 77   : 	}
; 78   : 
; 79   : 	float  VectorNormalize(Vector& vec)
; 80   : 	{
; 81   : 		float radius = sqrtf(vec.x*vec.x + vec.y*vec.y + vec.z*vec.z);
; 82   : 		float iradius = 1.f / (radius + FLT_EPSILON);
; 83   : 		vec.x *= iradius;
; 84   : 		vec.y *= iradius;
; 85   : 		vec.z *= iradius;
; 86   : 		return radius;
; 87   : 	}
; 88   : 
; 89   : 	void VectorAngles(const float *forward, float *angles)
; 90   : 	{
; 91   : 		float tmp, yaw, pitch;
; 92   : 		if (forward[1] == 0 && forward[0] == 0)
; 93   : 		{
; 94   : 			yaw = 0;
; 95   : 			if (forward[2] > 0)
; 96   : 				pitch = 270;
; 97   : 			else
; 98   : 				pitch = 90;
; 99   : 		}
; 100  : 		else
; 101  : 		{
; 102  : 			yaw = (atan2(forward[1], forward[0]) * 180 / M_PI);
; 103  : 			if (yaw < 0)
; 104  : 				yaw += 360;
; 105  : 			tmp = sqrt(forward[0] * forward[0] + forward[1] * forward[1]);
; 106  : 			pitch = (atan2(-forward[2], tmp) * 180 / M_PI);
; 107  : 			if (pitch < 0)
; 108  : 				pitch += 360;
; 109  : 		}
; 110  : 
; 111  : 		angles[0] = pitch;
; 112  : 		angles[1] = yaw;
; 113  : 		angles[2] = 0;
; 114  : 	}
; 115  : 
; 116  : 	void NormalizeAngles(float *angle)
; 117  : 	{
; 118  : 		for (int axis = 2; axis >= 0; --axis)

	sub	eax, 4
	cmp	eax, OFFSET ?g_Vars@@3VC_GlobalVars@@A+188
	jge	SHORT $LL91@Aimbot
; File d:\nevoie personala\engine hack\ankfest\ankfest\ankfest.cpp

; 243  : 									WriteProcessMemory(g_Vars.hProcess, gLocalBasePlayer.AngBase + ViewAngOff, &g_Vars.Angle, sizeof(g_Vars.Angle), 0);

	mov	eax, DWORD PTR _gLocalBasePlayer$8[esp+3524]
	push	0
	push	12					; 0000000cH
	push	OFFSET ?g_Vars@@3VC_GlobalVars@@A+188
	add	eax, 19848				; 00004d88H
	push	eax
	push	DWORD PTR ?g_Vars@@3VC_GlobalVars@@A+40
	call	DWORD PTR __imp__WriteProcessMemory@20
$LN4@Aimbot:

; 161  : 			{
; 162  : 				DropTarget();
; 163  : 
; 164  : 				for (int i = 0; i < 64; i++)

	mov	eax, DWORD PTR _i$1$[esp+3520]
	add	edi, 52					; 00000034H
	inc	eax
	mov	DWORD PTR _i$1$[esp+3520], eax
	cmp	eax, 64					; 00000040H
	jl	$LL6@Aimbot

; 244  : 								}
; 245  : 							}
; 246  : 						}
; 247  : 					}
; 248  : 				}
; 249  : 			}
; 250  : 		}
; 251  : 	}

	jmp	$LL2@Aimbot
?Aimbot@@YAKPAX@Z ENDP					; Aimbot
_TEXT	ENDS
; Function compile flags: /Ogtp
; File d:\nevoie personala\engine hack\ankfest\ankfest\ankfest.cpp
;	COMDAT ?Triggerbot@@YAKPAX@Z
_TEXT	SEGMENT
_LOCALBASE$1 = -16					; size = 4
_BASEPOINTER$2 = -12					; size = 4
_ID$3 = -8						; size = 1
_MYTEAM$4 = -7						; size = 1
_TEAM$5 = -6						; size = 1
_HP$6 = -5						; size = 1
__$ArrayPad$ = -4					; size = 4
_pParam$ = 8						; size = 4
?Triggerbot@@YAKPAX@Z PROC				; Triggerbot, COMDAT

; 255  : {

	push	ebp
	mov	ebp, esp
	sub	esp, 16					; 00000010H
	mov	eax, DWORD PTR ___security_cookie
	xor	eax, ebp
	mov	DWORD PTR __$ArrayPad$[ebp], eax
	push	ebx
	mov	ebx, DWORD PTR __imp__PostMessageA@16
	push	esi
	mov	esi, DWORD PTR __imp__Sleep@4
	push	edi
	mov	edi, DWORD PTR __imp__ReadProcessMemory@20
$LL2@Triggerbot:

; 256  : 	while (true)
; 257  : 	{
; 258  : 		Sleep(5);

	push	5
	call	esi

; 259  : 
; 260  : 		if (g_Vars.Triggerbot.Enabled == 1)

	cmp	DWORD PTR ?g_Vars@@3VC_GlobalVars@@A+548, 1
	jne	SHORT $LL2@Triggerbot

; 261  : 		{
; 262  : 			if (GetAsyncKeyState(g_Vars.Triggerbot.Key))

	push	DWORD PTR ?g_Vars@@3VC_GlobalVars@@A+552
	call	DWORD PTR __imp__GetAsyncKeyState@4
	test	ax, ax
	je	SHORT $LL2@Triggerbot

; 263  : 			{
; 264  : 				PBYTE LOCALBASE;
; 265  : 				PBYTE BASEPOINTER;
; 266  : 
; 267  : 				byte ID;
; 268  : 				byte HP;
; 269  : 				byte TEAM;
; 270  : 				byte MYTEAM;
; 271  : 
; 272  : 				ReadProcessMemory(g_Vars.hProcess, g_Vars.dwClient + c_dwLocalBaseEntity, &LOCALBASE, sizeof(LOCALBASE), NULL);

	push	0
	push	4
	lea	eax, DWORD PTR _LOCALBASE$1[ebp]
	push	eax
	mov	eax, DWORD PTR ?g_Vars@@3VC_GlobalVars@@A+36
	add	eax, 13798172				; 00d28b1cH
	push	eax
	push	DWORD PTR ?g_Vars@@3VC_GlobalVars@@A+40
	call	edi

; 273  : 				ReadProcessMemory(g_Vars.hProcess, LOCALBASE + OFFSET_CROSSHAIRID, &ID, sizeof(ID), NULL);

	push	0
	push	1
	lea	eax, DWORD PTR _ID$3[ebp]
	push	eax
	mov	eax, DWORD PTR _LOCALBASE$1[ebp]
	add	eax, 46036				; 0000b3d4H
	push	eax
	push	DWORD PTR ?g_Vars@@3VC_GlobalVars@@A+40
	call	edi

; 274  : 
; 275  : 				if (ID)

	mov	al, BYTE PTR _ID$3[ebp]
	test	al, al
	je	SHORT $LL2@Triggerbot

; 276  : 				{
; 277  : 					ReadProcessMemory(g_Vars.hProcess, g_Vars.dwClient + c_dwBaseEntity + ((ID - 1) * 16), &BASEPOINTER, sizeof(BASEPOINTER), NULL);

	push	0
	push	4
	lea	ecx, DWORD PTR _BASEPOINTER$2[ebp]
	push	ecx
	movzx	ecx, al
	mov	eax, DWORD PTR ?g_Vars@@3VC_GlobalVars@@A+36
	shl	ecx, 4
	add	eax, 80987772				; 04d3c67cH
	add	eax, ecx
	push	eax
	push	DWORD PTR ?g_Vars@@3VC_GlobalVars@@A+40
	call	edi

; 278  : 					ReadProcessMemory(g_Vars.hProcess, BASEPOINTER + Healths, &HP, sizeof(HP), NULL);

	push	0
	push	1
	lea	eax, DWORD PTR _HP$6[ebp]
	push	eax
	mov	eax, DWORD PTR _BASEPOINTER$2[ebp]
	add	eax, 256				; 00000100H
	push	eax
	push	DWORD PTR ?g_Vars@@3VC_GlobalVars@@A+40
	call	edi

; 279  : 
; 280  : 					if (HP > 0)

	cmp	BYTE PTR _HP$6[ebp], 0
	jbe	$LL2@Triggerbot

; 281  : 					{
; 282  : 						ReadProcessMemory(g_Vars.hProcess, BASEPOINTER + MyTeamAD, &TEAM, sizeof(TEAM), NULL);

	push	0
	push	1
	lea	eax, DWORD PTR _TEAM$5[ebp]
	push	eax
	mov	eax, DWORD PTR _BASEPOINTER$2[ebp]
	add	eax, 244				; 000000f4H
	push	eax
	push	DWORD PTR ?g_Vars@@3VC_GlobalVars@@A+40
	call	edi

; 283  : 						ReadProcessMemory(g_Vars.hProcess, LOCALBASE + MyTeamAD, &MYTEAM, sizeof(MYTEAM), NULL);

	push	0
	push	1
	lea	eax, DWORD PTR _MYTEAM$4[ebp]
	push	eax
	mov	eax, DWORD PTR _LOCALBASE$1[ebp]
	add	eax, 244				; 000000f4H
	push	eax
	push	DWORD PTR ?g_Vars@@3VC_GlobalVars@@A+40
	call	edi

; 284  : 
; 285  : 						if (TEAM != MYTEAM)

	mov	al, BYTE PTR _TEAM$5[ebp]
	cmp	al, BYTE PTR _MYTEAM$4[ebp]
	je	$LL2@Triggerbot

; 286  : 						{
; 287  : 							PostMessage(g_Vars.HandleWindow, WM_LBUTTONDOWN, MK_LBUTTON, 0);

	push	0
	push	1
	push	513					; 00000201H
	push	DWORD PTR ?g_Vars@@3VC_GlobalVars@@A+52
	call	ebx

; 288  : 							Sleep(g_Vars.Triggerbot.Sleep1);

	push	DWORD PTR ?g_Vars@@3VC_GlobalVars@@A+556
	call	esi

; 289  : 							PostMessage(g_Vars.HandleWindow, WM_LBUTTONUP, MK_LBUTTON, 0);

	push	0
	push	1
	push	514					; 00000202H
	push	DWORD PTR ?g_Vars@@3VC_GlobalVars@@A+52
	call	ebx

; 290  : 							Sleep(g_Vars.Triggerbot.Sleep2);

	push	DWORD PTR ?g_Vars@@3VC_GlobalVars@@A+560
	call	esi

; 291  : 						}
; 292  : 					}
; 293  : 				}
; 294  : 			}
; 295  : 		}
; 296  : 	}

	jmp	$LL2@Triggerbot
?Triggerbot@@YAKPAX@Z ENDP				; Triggerbot
_TEXT	ENDS
; Function compile flags: /Ogtp
; File d:\nevoie personala\engine hack\ankfest\ankfest\ankfest.cpp
; File c:\program files (x86)\microsoft visual studio 14.0\vc\include\xstring
; File c:\program files (x86)\microsoft visual studio 14.0\vc\include\iosfwd
; File c:\program files (x86)\microsoft visual studio 14.0\vc\include\xstring
; File d:\nevoie personala\engine hack\ankfest\ankfest\ankfest.cpp
; File c:\program files (x86)\microsoft visual studio 14.0\vc\include\xstring
; File c:\program files (x86)\microsoft visual studio 14.0\vc\include\iosfwd
; File c:\program files (x86)\microsoft visual studio 14.0\vc\include\xstring
; File d:\nevoie personala\engine hack\ankfest\ankfest\ankfest.cpp
; File c:\program files (x86)\microsoft visual studio 14.0\vc\include\xstring
; File c:\program files (x86)\microsoft visual studio 14.0\vc\include\iosfwd
; File c:\program files (x86)\microsoft visual studio 14.0\vc\include\xstring
; File d:\nevoie personala\engine hack\ankfest\ankfest\ankfest.cpp
;	COMDAT ?Info@@YA_NXZ
_TEXT	SEGMENT
?Info@@YA_NXZ PROC					; Info, COMDAT

; 709  : {

	push	ebp
	mov	ebp, esp
	and	esp, -8					; fffffff8H

; 710  : 	if (UPD == 100)

	mov	eax, DWORD PTR ?UPD@@3HA		; UPD
	sub	esp, 8
	cmp	eax, 100				; 00000064H
	jne	$LN392@Info

; 711  : 	{
; 712  : 		InitializeSettings();

	call	?InitializeSettings@@YA_NXZ		; InitializeSettings

; 713  : 		GetWeaponInfos();

	call	?GetWeaponInfos@@YA_NXZ			; GetWeaponInfos

; 715  : 		g_Vars.hPID = g_Module.GetProcID("csgo.exe");

	sub	esp, 24					; 00000018H
	mov	ecx, esp
; File c:\program files (x86)\microsoft visual studio 14.0\vc\include\xstring

; 1182 : 		return (assign(_Ptr, _Traits::length(_Ptr)));

	push	8

; 2260 : 		this->_Myres() = this->_BUF_SIZE - 1;

	mov	DWORD PTR [ecx+20], 15			; 0000000fH

; 2219 : 		_Traits::assign(_Dx._Myptr()[_Dx._Mysize = _Newsize], _Elem());

	mov	DWORD PTR [ecx+16], 0

; 1182 : 		return (assign(_Ptr, _Traits::length(_Ptr)));

	push	OFFSET ??_C@_08NJBFDPPJ@csgo?4exe?$AA@
; File c:\program files (x86)\microsoft visual studio 14.0\vc\include\iosfwd

; 565  : 		_Left = _Right;

	mov	BYTE PTR [ecx], 0
; File c:\program files (x86)\microsoft visual studio 14.0\vc\include\xstring

; 1182 : 		return (assign(_Ptr, _Traits::length(_Ptr)));

	call	?assign@?$basic_string@DU?$char_traits@D@std@@V?$allocator@D@2@@std@@QAEAAV12@PBDI@Z ; std::basic_string<char,std::char_traits<char>,std::allocator<char> >::assign
; File d:\nevoie personala\engine hack\ankfest\ankfest\ankfest.cpp

; 715  : 		g_Vars.hPID = g_Module.GetProcID("csgo.exe");

	call	?GetProcID@C_Module@@QAEHV?$basic_string@DU?$char_traits@D@std@@V?$allocator@D@2@@std@@@Z ; C_Module::GetProcID

; 716  : 		g_Vars.HandleWindow = FindWindowA("Valve001", 0);

	push	0
	push	OFFSET ??_C@_08NGFNFJHL@Valve001?$AA@
	mov	DWORD PTR ?g_Vars@@3VC_GlobalVars@@A+48, eax
	call	DWORD PTR __imp__FindWindowA@8

; 717  : 		g_Vars.hProcess = OpenProcess(PROCESS_ALL_ACCESS, false, g_Vars.hPID);

	push	DWORD PTR ?g_Vars@@3VC_GlobalVars@@A+48
	mov	DWORD PTR ?g_Vars@@3VC_GlobalVars@@A+52, eax
	push	0
	push	2097151					; 001fffffH
	call	DWORD PTR __imp__OpenProcess@12

; 718  : 		g_Vars.hSnapshot = CreateToolhelp32Snapshot(TH32CS_SNAPMODULE, g_Vars.hPID);

	push	DWORD PTR ?g_Vars@@3VC_GlobalVars@@A+48
	mov	DWORD PTR ?g_Vars@@3VC_GlobalVars@@A+40, eax
	push	8
	call	DWORD PTR __imp__CreateToolhelp32Snapshot@8

; 719  : 		g_Vars.dwClient = g_Module.GetModule(g_Vars.hSnapshot, "client_panorama.dll");

	sub	esp, 24					; 00000018H
	mov	DWORD PTR ?g_Vars@@3VC_GlobalVars@@A+44, eax
	mov	ecx, esp
; File c:\program files (x86)\microsoft visual studio 14.0\vc\include\xstring

; 1182 : 		return (assign(_Ptr, _Traits::length(_Ptr)));

	push	19					; 00000013H

; 2260 : 		this->_Myres() = this->_BUF_SIZE - 1;

	mov	DWORD PTR [ecx+20], 15			; 0000000fH

; 2219 : 		_Traits::assign(_Dx._Myptr()[_Dx._Mysize = _Newsize], _Elem());

	mov	DWORD PTR [ecx+16], 0

; 1182 : 		return (assign(_Ptr, _Traits::length(_Ptr)));

	push	OFFSET ??_C@_0BE@FJNGABL@client_panorama?4dll?$AA@
; File c:\program files (x86)\microsoft visual studio 14.0\vc\include\iosfwd

; 565  : 		_Left = _Right;

	mov	BYTE PTR [ecx], 0
; File c:\program files (x86)\microsoft visual studio 14.0\vc\include\xstring

; 1182 : 		return (assign(_Ptr, _Traits::length(_Ptr)));

	call	?assign@?$basic_string@DU?$char_traits@D@std@@V?$allocator@D@2@@std@@QAEAAV12@PBDI@Z ; std::basic_string<char,std::char_traits<char>,std::allocator<char> >::assign
; File d:\nevoie personala\engine hack\ankfest\ankfest\ankfest.cpp

; 719  : 		g_Vars.dwClient = g_Module.GetModule(g_Vars.hSnapshot, "client_panorama.dll");

	push	DWORD PTR ?g_Vars@@3VC_GlobalVars@@A+44
	call	?GetModule@C_Module@@QAEPAEPAXV?$basic_string@DU?$char_traits@D@std@@V?$allocator@D@2@@std@@@Z ; C_Module::GetModule

; 720  : 		g_Vars.dwEngine = g_Module.GetModule(g_Vars.hSnapshot, "engine.dll");

	sub	esp, 24					; 00000018H
	mov	DWORD PTR ?g_Vars@@3VC_GlobalVars@@A+36, eax
	mov	ecx, esp
; File c:\program files (x86)\microsoft visual studio 14.0\vc\include\xstring

; 1182 : 		return (assign(_Ptr, _Traits::length(_Ptr)));

	push	10					; 0000000aH

; 2260 : 		this->_Myres() = this->_BUF_SIZE - 1;

	mov	DWORD PTR [ecx+20], 15			; 0000000fH

; 2219 : 		_Traits::assign(_Dx._Myptr()[_Dx._Mysize = _Newsize], _Elem());

	mov	DWORD PTR [ecx+16], 0

; 1182 : 		return (assign(_Ptr, _Traits::length(_Ptr)));

	push	OFFSET ??_C@_0L@EMPDFJNI@engine?4dll?$AA@
; File c:\program files (x86)\microsoft visual studio 14.0\vc\include\iosfwd

; 565  : 		_Left = _Right;

	mov	BYTE PTR [ecx], 0
; File c:\program files (x86)\microsoft visual studio 14.0\vc\include\xstring

; 1182 : 		return (assign(_Ptr, _Traits::length(_Ptr)));

	call	?assign@?$basic_string@DU?$char_traits@D@std@@V?$allocator@D@2@@std@@QAEAAV12@PBDI@Z ; std::basic_string<char,std::char_traits<char>,std::allocator<char> >::assign
; File d:\nevoie personala\engine hack\ankfest\ankfest\ankfest.cpp

; 720  : 		g_Vars.dwEngine = g_Module.GetModule(g_Vars.hSnapshot, "engine.dll");

	push	DWORD PTR ?g_Vars@@3VC_GlobalVars@@A+44
	call	?GetModule@C_Module@@QAEPAEPAXV?$basic_string@DU?$char_traits@D@std@@V?$allocator@D@2@@std@@@Z ; C_Module::GetModule
	mov	DWORD PTR ?g_Vars@@3VC_GlobalVars@@A+32, eax

; 721  : 
; 722  : 		UPD = 0;

	xor	eax, eax
$LN392@Info:

; 723  : 	}
; 724  : 	UPD = UPD + 1;

	inc	eax
	mov	DWORD PTR ?UPD@@3HA, eax		; UPD

; 725  : 	return true;

	mov	al, 1

; 726  : }

	mov	esp, ebp
	pop	ebp
	ret	0
?Info@@YA_NXZ ENDP					; Info
_TEXT	ENDS
END
